

Microchip MPLAB XC8 Assembler V2.32 build 20210201212658 
                                                                                               Mon Jun 07 09:48:06 2021

Microchip MPLAB XC8 C Compiler v2.32 (Free license) build 20210201212658 Og1 
     1                           	processor	16F887
     2                           	pagewidth 120
     3                           	opt	flic
     4                           	psect	strings,global,class=STRING,delta=2,noexec
     5                           	psect	cinit,global,class=CODE,merge=1,delta=2
     6                           	psect	bssBANK0,global,class=BANK0,space=1,delta=1,noexec
     7                           	psect	cstackCOMMON,global,class=COMMON,space=1,delta=1,noexec
     8                           	psect	cstackBANK0,global,class=BANK0,space=1,delta=1,noexec
     9                           	psect	maintext,global,class=CODE,split=1,delta=2
    10                           	psect	text1,local,class=CODE,merge=1,delta=2
    11                           	psect	text2,local,class=CODE,merge=1,delta=2
    12                           	psect	text3,local,class=CODE,merge=1,delta=2
    13                           	psect	text4,local,class=CODE,merge=1,delta=2
    14                           	psect	text5,local,class=CODE,merge=1,delta=2
    15                           	psect	text6,local,class=CODE,merge=1,delta=2
    16                           	psect	text7,local,class=CODE,merge=1,delta=2
    17                           	psect	text8,local,class=CODE,merge=1,delta=2
    18                           	psect	text9,local,class=CODE,merge=1,delta=2
    19                           	psect	intentry,global,class=CODE,delta=2
    20                           	psect	text10,local,class=CODE,merge=1,delta=2
    21                           	psect	text11,local,class=CODE,merge=1,delta=2
    22                           	psect	text12,local,class=CODE,merge=1,delta=2,group=1
    23                           	psect	text13,local,class=CODE,merge=1,delta=2
    24                           	psect	text14,local,class=CODE,merge=1,delta=2
    25                           	psect	text15,local,class=CODE,merge=1,delta=2
    26                           	psect	text16,local,class=CODE,merge=1,delta=2
    27                           	psect	text17,local,class=CODE,merge=1,delta=2
    28                           	psect	text18,local,class=CODE,merge=1,delta=2
    29                           	psect	text19,local,class=CODE,merge=1,delta=2,group=2
    30                           	psect	text20,local,class=CODE,merge=1,delta=2,group=2
    31                           	psect	config,global,abs,ovrld,class=CONFIG,space=4,delta=2,noexec
    32                           	dabs	1,0x7E,2
    33  0000                     
    34                           ; Version 2.20
    35                           ; Generated 12/02/2020 GMT
    36                           ; 
    37                           ; Copyright © 2020, Microchip Technology Inc. and its subsidiaries ("Microchip")
    38                           ; All rights reserved.
    39                           ; 
    40                           ; This software is developed by Microchip Technology Inc. and its subsidiaries ("Microch
      +                          ip").
    41                           ; 
    42                           ; Redistribution and use in source and binary forms, with or without modification, are
    43                           ; permitted provided that the following conditions are met:
    44                           ; 
    45                           ;     1. Redistributions of source code must retain the above copyright notice, this lis
      +                          t of
    46                           ;        conditions and the following disclaimer.
    47                           ; 
    48                           ;     2. Redistributions in binary form must reproduce the above copyright notice, this 
      +                          list
    49                           ;        of conditions and the following disclaimer in the documentation and/or other
    50                           ;        materials provided with the distribution.
    51                           ; 
    52                           ;     3. Microchip's name may not be used to endorse or promote products derived from th
      +                          is
    53                           ;        software without specific prior written permission.
    54                           ; 
    55                           ; THIS SOFTWARE IS PROVIDED BY MICROCHIP "AS IS" AND ANY EXPRESS OR IMPLIED WARRANTIES,
    56                           ; INCLUDING, BUT NOT LIMITED TO, THE IMPLIED WARRANTIES OF MERCHANTABILITY AND FITNESS F
      +                          OR
    57                           ; PURPOSE ARE DISCLAIMED.  IN NO EVENT SHALL MICROCHIP BE LIABLE FOR ANY DIRECT, INDIREC
      +                          T,
    58                           ; INCIDENTAL, SPECIAL, EXEMPLARY, OR CONSEQUENTIAL DAMAGES (INCLUDING BUT NOT LIMITED TO
    59                           ; PROCUREMENT OF SUBSTITUTE GOODS OR SERVICES; LOSS OF USE, DATA OR PROFITS; OR BUSINESS
    60                           ; INTERRUPTION) HOWSOEVER CAUSED AND ON ANY THEORY OF LIABILITY, WHETHER IN CONTRACT, ST
      +                          RICT
    61                           ; LIABILITY, OR TORT (INCLUDING NEGLIGENCE OR OTHERWISE) ARISING IN ANY WAY OUT OF THE U
      +                          SE OF
    62                           ; THIS SOFTWARE, EVEN IF ADVISED OF THE POSSIBILITY OF SUCH DAMAGE.
    63                           ; 
    64                           ; 
    65                           ; Code-generator required, PIC16F887 Definitions
    66                           ; 
    67                           ; SFR Addresses
    68  0000                     	;# 
    69  0001                     	;# 
    70  0002                     	;# 
    71  0003                     	;# 
    72  0004                     	;# 
    73  0005                     	;# 
    74  0006                     	;# 
    75  0007                     	;# 
    76  0008                     	;# 
    77  0009                     	;# 
    78  000A                     	;# 
    79  000B                     	;# 
    80  000C                     	;# 
    81  000D                     	;# 
    82  000E                     	;# 
    83  000E                     	;# 
    84  000F                     	;# 
    85  0010                     	;# 
    86  0011                     	;# 
    87  0012                     	;# 
    88  0013                     	;# 
    89  0014                     	;# 
    90  0015                     	;# 
    91  0015                     	;# 
    92  0016                     	;# 
    93  0017                     	;# 
    94  0018                     	;# 
    95  0019                     	;# 
    96  001A                     	;# 
    97  001B                     	;# 
    98  001B                     	;# 
    99  001C                     	;# 
   100  001D                     	;# 
   101  001E                     	;# 
   102  001F                     	;# 
   103  0081                     	;# 
   104  0085                     	;# 
   105  0086                     	;# 
   106  0087                     	;# 
   107  0088                     	;# 
   108  0089                     	;# 
   109  008C                     	;# 
   110  008D                     	;# 
   111  008E                     	;# 
   112  008F                     	;# 
   113  0090                     	;# 
   114  0091                     	;# 
   115  0092                     	;# 
   116  0093                     	;# 
   117  0093                     	;# 
   118  0093                     	;# 
   119  0094                     	;# 
   120  0095                     	;# 
   121  0096                     	;# 
   122  0097                     	;# 
   123  0098                     	;# 
   124  0099                     	;# 
   125  009A                     	;# 
   126  009B                     	;# 
   127  009C                     	;# 
   128  009D                     	;# 
   129  009E                     	;# 
   130  009F                     	;# 
   131  0105                     	;# 
   132  0107                     	;# 
   133  0108                     	;# 
   134  0109                     	;# 
   135  010C                     	;# 
   136  010C                     	;# 
   137  010D                     	;# 
   138  010E                     	;# 
   139  010F                     	;# 
   140  0185                     	;# 
   141  0187                     	;# 
   142  0188                     	;# 
   143  0189                     	;# 
   144  018C                     	;# 
   145  018D                     	;# 
   146  0000                     	;# 
   147  0001                     	;# 
   148  0002                     	;# 
   149  0003                     	;# 
   150  0004                     	;# 
   151  0005                     	;# 
   152  0006                     	;# 
   153  0007                     	;# 
   154  0008                     	;# 
   155  0009                     	;# 
   156  000A                     	;# 
   157  000B                     	;# 
   158  000C                     	;# 
   159  000D                     	;# 
   160  000E                     	;# 
   161  000E                     	;# 
   162  000F                     	;# 
   163  0010                     	;# 
   164  0011                     	;# 
   165  0012                     	;# 
   166  0013                     	;# 
   167  0014                     	;# 
   168  0015                     	;# 
   169  0015                     	;# 
   170  0016                     	;# 
   171  0017                     	;# 
   172  0018                     	;# 
   173  0019                     	;# 
   174  001A                     	;# 
   175  001B                     	;# 
   176  001B                     	;# 
   177  001C                     	;# 
   178  001D                     	;# 
   179  001E                     	;# 
   180  001F                     	;# 
   181  0081                     	;# 
   182  0085                     	;# 
   183  0086                     	;# 
   184  0087                     	;# 
   185  0088                     	;# 
   186  0089                     	;# 
   187  008C                     	;# 
   188  008D                     	;# 
   189  008E                     	;# 
   190  008F                     	;# 
   191  0090                     	;# 
   192  0091                     	;# 
   193  0092                     	;# 
   194  0093                     	;# 
   195  0093                     	;# 
   196  0093                     	;# 
   197  0094                     	;# 
   198  0095                     	;# 
   199  0096                     	;# 
   200  0097                     	;# 
   201  0098                     	;# 
   202  0099                     	;# 
   203  009A                     	;# 
   204  009B                     	;# 
   205  009C                     	;# 
   206  009D                     	;# 
   207  009E                     	;# 
   208  009F                     	;# 
   209  0105                     	;# 
   210  0107                     	;# 
   211  0108                     	;# 
   212  0109                     	;# 
   213  010C                     	;# 
   214  010C                     	;# 
   215  010D                     	;# 
   216  010E                     	;# 
   217  010F                     	;# 
   218  0185                     	;# 
   219  0187                     	;# 
   220  0188                     	;# 
   221  0189                     	;# 
   222  018C                     	;# 
   223  018D                     	;# 
   224  0000                     	;# 
   225  0001                     	;# 
   226  0002                     	;# 
   227  0003                     	;# 
   228  0004                     	;# 
   229  0005                     	;# 
   230  0006                     	;# 
   231  0007                     	;# 
   232  0008                     	;# 
   233  0009                     	;# 
   234  000A                     	;# 
   235  000B                     	;# 
   236  000C                     	;# 
   237  000D                     	;# 
   238  000E                     	;# 
   239  000E                     	;# 
   240  000F                     	;# 
   241  0010                     	;# 
   242  0011                     	;# 
   243  0012                     	;# 
   244  0013                     	;# 
   245  0014                     	;# 
   246  0015                     	;# 
   247  0015                     	;# 
   248  0016                     	;# 
   249  0017                     	;# 
   250  0018                     	;# 
   251  0019                     	;# 
   252  001A                     	;# 
   253  001B                     	;# 
   254  001B                     	;# 
   255  001C                     	;# 
   256  001D                     	;# 
   257  001E                     	;# 
   258  001F                     	;# 
   259  0081                     	;# 
   260  0085                     	;# 
   261  0086                     	;# 
   262  0087                     	;# 
   263  0088                     	;# 
   264  0089                     	;# 
   265  008C                     	;# 
   266  008D                     	;# 
   267  008E                     	;# 
   268  008F                     	;# 
   269  0090                     	;# 
   270  0091                     	;# 
   271  0092                     	;# 
   272  0093                     	;# 
   273  0093                     	;# 
   274  0093                     	;# 
   275  0094                     	;# 
   276  0095                     	;# 
   277  0096                     	;# 
   278  0097                     	;# 
   279  0098                     	;# 
   280  0099                     	;# 
   281  009A                     	;# 
   282  009B                     	;# 
   283  009C                     	;# 
   284  009D                     	;# 
   285  009E                     	;# 
   286  009F                     	;# 
   287  0105                     	;# 
   288  0107                     	;# 
   289  0108                     	;# 
   290  0109                     	;# 
   291  010C                     	;# 
   292  010C                     	;# 
   293  010D                     	;# 
   294  010E                     	;# 
   295  010F                     	;# 
   296  0185                     	;# 
   297  0187                     	;# 
   298  0188                     	;# 
   299  0189                     	;# 
   300  018C                     	;# 
   301  018D                     	;# 
   302                           
   303                           	psect	strings
   304  0586                     __pstrings:
   305  0586                     stringtab:
   306  0586                     __stringtab:
   307  0586                     stringcode:	
   308                           ;	String table - string pointers are 1 byte each
   309                           
   310  0586                     stringdir:
   311  0586  3005               	movlw	high stringdir
   312  0587  008A               	movwf	10
   313  0588  0804               	movf	4,w
   314  0589  0A84               	incf	4,f
   315  058A  0782               	addwf	2,f
   316  058B                     __stringbase:
   317  058B  3400               	retlw	0
   318  058C                     __end_of__stringtab:
   319  058C                     _dpowers:
   320  058C  3401               	retlw	1
   321  058D  3400               	retlw	0
   322  058E  340A               	retlw	10
   323  058F  3400               	retlw	0
   324  0590  3464               	retlw	100
   325  0591  3400               	retlw	0
   326  0592  34E8               	retlw	232
   327  0593  3403               	retlw	3
   328  0594  3410               	retlw	16
   329  0595  3427               	retlw	39
   330  0596                     __end_of_dpowers:
   331  0596                     _your_name:
   332  0596  344E               	retlw	78
   333  0597  3467               	retlw	103
   334  0598  3475               	retlw	117
   335  0599  3479               	retlw	121
   336  059A  3465               	retlw	101
   337  059B  346E               	retlw	110
   338  059C  3420               	retlw	32
   339  059D  3454               	retlw	84
   340  059E  3461               	retlw	97
   341  059F  346E               	retlw	110
   342  05A0  3420               	retlw	32
   343  05A1  3450               	retlw	80
   344  05A2  3468               	retlw	104
   345  05A3  3461               	retlw	97
   346  05A4  3470               	retlw	112
   347  05A5  3400               	retlw	0
   348  05A6                     __end_of_your_name:
   349  005C                     _INTE	set	92
   350  0059                     _INTF	set	89
   351  005F                     _GIE	set	95
   352  0044                     _RD4	set	68
   353  0045                     _RD5	set	69
   354  0046                     _RD6	set	70
   355  0047                     _RD7	set	71
   356  0043                     _RD3	set	67
   357  0041                     _RD1	set	65
   358  0042                     _RD2	set	66
   359  0095                     _WPUB	set	149
   360  0086                     _TRISB	set	134
   361  040E                     _INTEDG	set	1038
   362  040F                     _nRBPU	set	1039
   363  0442                     _TRISD2	set	1090
   364  0441                     _TRISD1	set	1089
   365  0443                     _TRISD3	set	1091
   366  0447                     _TRISD7	set	1095
   367  0446                     _TRISD6	set	1094
   368  0445                     _TRISD5	set	1093
   369  0444                     _TRISD4	set	1092
   370  0189                     _ANSELH	set	393
   371  0188                     _ANSEL	set	392
   372  05A6                     STR_1:
   373  05A6  3425               	retlw	37	;'%'
   374  05A7  3464               	retlw	100	;'d'
   375  05A8  3400               	retlw	0
   376                           
   377                           	psect	cinit
   378  0015                     start_initialization:	
   379                           ; #config settings
   380                           
   381  0015                     __initialization:
   382                           
   383                           ; Clear objects allocated to BANK0
   384  0015  1283               	bcf	3,5	;RP0=0, select bank0
   385  0016  1303               	bcf	3,6	;RP1=0, select bank0
   386  0017  01BF               	clrf	__pbssBANK0& (0+127)
   387  0018  01C0               	clrf	(__pbssBANK0+1)& (0+127)
   388  0019                     end_of_initialization:	
   389                           ;End of C runtime variable initialization code
   390                           
   391  0019                     __end_of__initialization:
   392  0019  0183               	clrf	3
   393  001A  120A  118A  2DEF   	ljmp	_main	;jump to C main() function
   394                           
   395                           	psect	bssBANK0
   396  003F                     __pbssBANK0:
   397  003F                     _count:
   398  003F                     	ds	2
   399                           
   400                           	psect	cstackCOMMON
   401  0070                     __pcstackCOMMON:
   402  0070                     ?_lcd_busy:
   403  0070                     ?_lcd_put_nibble:	
   404                           ; 1 bytes @ 0x0
   405                           
   406  0070                     ?_lcd_putc:	
   407                           ; 1 bytes @ 0x0
   408                           
   409  0070                     ?_lcd_puts:	
   410                           ; 1 bytes @ 0x0
   411                           
   412  0070                     ?_lcd_init:	
   413                           ; 1 bytes @ 0x0
   414                           
   415  0070                     ?_putch:	
   416                           ; 1 bytes @ 0x0
   417                           
   418  0070                     ?_declarePort:	
   419                           ; 1 bytes @ 0x0
   420                           
   421  0070                     ?_main:	
   422                           ; 1 bytes @ 0x0
   423                           
   424  0070                     ?_myIsr:	
   425                           ; 1 bytes @ 0x0
   426                           
   427  0070                     ?i1_lcd_busy:	
   428                           ; 1 bytes @ 0x0
   429                           
   430  0070                     ??i1_lcd_busy:	
   431                           ; 1 bytes @ 0x0
   432                           
   433  0070                     ?i1_lcd_put_nibble:	
   434                           ; 1 bytes @ 0x0
   435                           
   436  0070                     ??i1_lcd_put_nibble:	
   437                           ; 1 bytes @ 0x0
   438                           
   439  0070                     ?i1_lcd_putc:	
   440                           ; 1 bytes @ 0x0
   441                           
   442  0070                     ?i1_lcd_puts:	
   443                           ; 1 bytes @ 0x0
   444                           
   445  0070                     ?i1_lcd_init:	
   446                           ; 1 bytes @ 0x0
   447                           
   448  0070                     ?___lwdiv:	
   449                           ; 1 bytes @ 0x0
   450                           
   451  0070                     ___lwdiv@divisor:	
   452                           ; 2 bytes @ 0x0
   453                           
   454                           
   455                           ; 2 bytes @ 0x0
   456  0070                     	ds	1
   457  0071                     i1lcd_busy@busy:
   458  0071                     i1lcd_put_nibble@b:	
   459                           ; 1 bytes @ 0x1
   460                           
   461                           
   462                           ; 1 bytes @ 0x1
   463  0071                     	ds	1
   464  0072                     i1lcd_put_nibble@temp:
   465  0072                     ___lwdiv@dividend:	
   466                           ; 1 bytes @ 0x2
   467                           
   468                           
   469                           ; 2 bytes @ 0x2
   470  0072                     	ds	1
   471  0073                     ?i1_lcd_put_byte:
   472  0073                     i1lcd_put_byte@b:	
   473                           ; 1 bytes @ 0x3
   474                           
   475                           
   476                           ; 1 bytes @ 0x3
   477  0073                     	ds	1
   478  0074                     ??___lwdiv:
   479  0074                     ??i1_lcd_put_byte:	
   480                           ; 1 bytes @ 0x4
   481                           
   482                           
   483                           ; 1 bytes @ 0x4
   484  0074                     	ds	1
   485  0075                     i1lcd_put_byte@rs:
   486  0075                     ___lwdiv@quotient:	
   487                           ; 1 bytes @ 0x5
   488                           
   489                           
   490                           ; 2 bytes @ 0x5
   491  0075                     	ds	1
   492  0076                     ?i1_lcd_gotoxy:
   493  0076                     ??i1_lcd_init:	
   494                           ; 1 bytes @ 0x6
   495                           
   496  0076                     i1lcd_gotoxy@row:	
   497                           ; 1 bytes @ 0x6
   498                           
   499                           
   500                           ; 1 bytes @ 0x6
   501  0076                     	ds	1
   502  0077                     ??i1_lcd_gotoxy:
   503  0077                     ___lwdiv@counter:	
   504                           ; 1 bytes @ 0x7
   505                           
   506                           
   507                           ; 1 bytes @ 0x7
   508  0077                     	ds	1
   509  0078                     ?___lwmod:
   510  0078                     i1lcd_gotoxy@col:	
   511                           ; 2 bytes @ 0x8
   512                           
   513  0078                     ___lwmod@divisor:	
   514                           ; 1 bytes @ 0x8
   515                           
   516                           
   517                           ; 2 bytes @ 0x8
   518  0078                     	ds	1
   519  0079                     i1lcd_gotoxy@address:
   520                           
   521                           ; 1 bytes @ 0x9
   522  0079                     	ds	1
   523  007A                     ??i1_lcd_putc:
   524  007A                     ___lwmod@dividend:	
   525                           ; 1 bytes @ 0xA
   526                           
   527                           
   528                           ; 2 bytes @ 0xA
   529  007A                     	ds	2
   530  007C                     ??___lwmod:
   531  007C                     i1lcd_putc@c:	
   532                           ; 1 bytes @ 0xC
   533                           
   534                           
   535                           ; 1 bytes @ 0xC
   536  007C                     	ds	1
   537  007D                     ??_putch:
   538  007D                     ??i1_lcd_puts:	
   539                           ; 1 bytes @ 0xD
   540                           
   541  007D                     putch@c:	
   542                           ; 1 bytes @ 0xD
   543                           
   544  007D                     ___lwmod@counter:	
   545                           ; 1 bytes @ 0xD
   546                           
   547                           
   548                           ; 1 bytes @ 0xD
   549  007D                     	ds	1
   550                           
   551                           	psect	cstackBANK0
   552  0020                     __pcstackBANK0:
   553  0020                     ?_printf:
   554  0020                     i1lcd_puts@s:	
   555                           ; 2 bytes @ 0x0
   556                           
   557                           
   558                           ; 1 bytes @ 0x0
   559  0020                     	ds	2
   560  0022                     ??_printf:
   561                           
   562                           ; 1 bytes @ 0x2
   563  0022                     	ds	3
   564  0025                     printf@ap:
   565                           
   566                           ; 1 bytes @ 0x5
   567  0025                     	ds	1
   568  0026                     printf@flag:
   569                           
   570                           ; 1 bytes @ 0x6
   571  0026                     	ds	1
   572  0027                     printf@prec:
   573                           
   574                           ; 1 bytes @ 0x7
   575  0027                     	ds	1
   576  0028                     printf@f:
   577                           
   578                           ; 1 bytes @ 0x8
   579  0028                     	ds	1
   580  0029                     printf@val:
   581                           
   582                           ; 2 bytes @ 0x9
   583  0029                     	ds	2
   584  002B                     printf@c:
   585                           
   586                           ; 1 bytes @ 0xB
   587  002B                     	ds	1
   588  002C                     ??_myIsr:
   589                           
   590                           ; 1 bytes @ 0xC
   591  002C                     	ds	4
   592  0030                     ??_lcd_busy:
   593  0030                     ??_lcd_put_nibble:	
   594                           ; 1 bytes @ 0x10
   595                           
   596  0030                     ??_declarePort:	
   597                           ; 1 bytes @ 0x10
   598                           
   599                           
   600                           ; 1 bytes @ 0x10
   601  0030                     	ds	1
   602  0031                     lcd_busy@busy:
   603  0031                     lcd_put_nibble@b:	
   604                           ; 1 bytes @ 0x11
   605                           
   606                           
   607                           ; 1 bytes @ 0x11
   608  0031                     	ds	1
   609  0032                     lcd_put_nibble@temp:
   610                           
   611                           ; 1 bytes @ 0x12
   612  0032                     	ds	1
   613  0033                     ?_lcd_put_byte:
   614  0033                     lcd_put_byte@b:	
   615                           ; 1 bytes @ 0x13
   616                           
   617                           
   618                           ; 1 bytes @ 0x13
   619  0033                     	ds	1
   620  0034                     ??_lcd_put_byte:
   621                           
   622                           ; 1 bytes @ 0x14
   623  0034                     	ds	1
   624  0035                     lcd_put_byte@rs:
   625                           
   626                           ; 1 bytes @ 0x15
   627  0035                     	ds	1
   628  0036                     ?_lcd_gotoxy:
   629  0036                     ??_lcd_init:	
   630                           ; 1 bytes @ 0x16
   631                           
   632  0036                     lcd_gotoxy@row:	
   633                           ; 1 bytes @ 0x16
   634                           
   635                           
   636                           ; 1 bytes @ 0x16
   637  0036                     	ds	1
   638  0037                     ??_lcd_gotoxy:
   639                           
   640                           ; 1 bytes @ 0x17
   641  0037                     	ds	1
   642  0038                     lcd_gotoxy@col:
   643                           
   644                           ; 1 bytes @ 0x18
   645  0038                     	ds	1
   646  0039                     lcd_gotoxy@address:
   647                           
   648                           ; 1 bytes @ 0x19
   649  0039                     	ds	1
   650  003A                     ??_lcd_putc:
   651                           
   652                           ; 1 bytes @ 0x1A
   653  003A                     	ds	2
   654  003C                     lcd_putc@c:
   655                           
   656                           ; 1 bytes @ 0x1C
   657  003C                     	ds	1
   658  003D                     ??_lcd_puts:
   659                           
   660                           ; 1 bytes @ 0x1D
   661  003D                     	ds	1
   662  003E                     lcd_puts@s:
   663                           
   664                           ; 1 bytes @ 0x1E
   665  003E                     	ds	1
   666  003F                     ??_main:
   667                           
   668                           	psect	maintext
   669  05EF                     __pmaintext:	
   670                           ; 1 bytes @ 0x1F
   671 ;;
   672 ;;Main: autosize = 0, tempsize = 0, incstack = 0, save=0
   673 ;;
   674 ;; *************** function _main *****************
   675 ;; Defined at:
   676 ;;		line 64 in file "bai_1.c"
   677 ;; Parameters:    Size  Location     Type
   678 ;;		None
   679 ;; Auto vars:     Size  Location     Type
   680 ;;		None
   681 ;; Return value:  Size  Location     Type
   682 ;;                  1    wreg      void 
   683 ;; Registers used:
   684 ;;		wreg, fsr0l, fsr0h, status,2, status,0, pclath, cstack
   685 ;; Tracked objects:
   686 ;;		On entry : B00/0
   687 ;;		On exit  : 0/0
   688 ;;		Unchanged: 0/0
   689 ;; Data sizes:     COMMON   BANK0   BANK1   BANK3   BANK2
   690 ;;      Params:         0       0       0       0       0
   691 ;;      Locals:         0       0       0       0       0
   692 ;;      Temps:          0       0       0       0       0
   693 ;;      Totals:         0       0       0       0       0
   694 ;;Total ram usage:        0 bytes
   695 ;; Hardware stack levels required when called: 12
   696 ;; This function calls:
   697 ;;		_declarePort
   698 ;;		_lcd_gotoxy
   699 ;;		_lcd_init
   700 ;;		_lcd_puts
   701 ;; This function is called by:
   702 ;;		Startup code after reset
   703 ;; This function uses a non-reentrant model
   704 ;;
   705                           
   706                           
   707                           ;psect for function _main
   708  05EF                     _main:
   709  05EF                     l1812:	
   710                           ;incstack = 0
   711 ;; hardware stack exceeded
   712                           ; Regs used in _main: [wreg-fsr0h+status,2+status,0+pclath+cstack]
   713                           
   714                           
   715                           ;bai_1.c: 65:     declarePort();
   716  05EF  120A  118A  260C  120A  118A  	fcall	_declarePort
   717                           
   718                           ;bai_1.c: 66:     lcd_init();
   719  05F4  120A  118A  20F8  120A  118A  	fcall	_lcd_init
   720                           
   721                           ;bai_1.c: 67:     lcd_gotoxy(0, 0);
   722  05F9  1283               	bcf	3,5	;RP0=0, select bank0
   723  05FA  1303               	bcf	3,6	;RP1=0, select bank0
   724  05FB  01B6               	clrf	lcd_gotoxy@row
   725  05FC  3000               	movlw	0
   726  05FD  120A  118A  2538  120A  118A  	fcall	_lcd_gotoxy
   727  0602                     l1814:
   728                           
   729                           ;bai_1.c: 68:     lcd_puts(your_name);
   730  0602  300B               	movlw	(low ((_your_name-__stringbase)| (0+32768)))& (0+255)
   731  0603  120A  118A  25A9  120A  118A  	fcall	_lcd_puts
   732  0608                     l184:	
   733                           ;bai_1.c: 69:     while(1);
   734                           
   735  0608                     l185:
   736  0608  2E08               	goto	l184
   737  0609  120A  118A  2812   	ljmp	start
   738  060C                     __end_of_main:
   739                           
   740                           	psect	text1
   741  05A9                     __ptext1:	
   742 ;; *************** function _lcd_puts *****************
   743 ;; Defined at:
   744 ;;		line 224 in file "lcd.c"
   745 ;; Parameters:    Size  Location     Type
   746 ;;  s               1    wreg     PTR const unsigned char 
   747 ;;		 -> your_name(16), 
   748 ;; Auto vars:     Size  Location     Type
   749 ;;  s               1   30[BANK0 ] PTR const unsigned char 
   750 ;;		 -> your_name(16), 
   751 ;; Return value:  Size  Location     Type
   752 ;;                  1    wreg      void 
   753 ;; Registers used:
   754 ;;		wreg, fsr0l, fsr0h, status,2, status,0, pclath, cstack
   755 ;; Tracked objects:
   756 ;;		On entry : 0/0
   757 ;;		On exit  : 0/0
   758 ;;		Unchanged: 0/0
   759 ;; Data sizes:     COMMON   BANK0   BANK1   BANK3   BANK2
   760 ;;      Params:         0       0       0       0       0
   761 ;;      Locals:         0       1       0       0       0
   762 ;;      Temps:          0       1       0       0       0
   763 ;;      Totals:         0       2       0       0       0
   764 ;;Total ram usage:        2 bytes
   765 ;; Hardware stack levels used: 1
   766 ;; Hardware stack levels required when called: 11
   767 ;; This function calls:
   768 ;;		_lcd_putc
   769 ;; This function is called by:
   770 ;;		_main
   771 ;; This function uses a non-reentrant model
   772 ;;
   773                           
   774                           
   775                           ;psect for function _lcd_puts
   776  05A9                     _lcd_puts:
   777                           
   778                           ;incstack = 0
   779 ;; hardware stack exceeded
   780                           ; Regs used in _lcd_puts: [wreg-fsr0h+status,2+status,0+pclath+cstack]
   781                           ;lcd_puts@s stored from wreg
   782  05A9  1283               	bcf	3,5	;RP0=0, select bank0
   783  05AA  1303               	bcf	3,6	;RP1=0, select bank0
   784  05AB  00BE               	movwf	lcd_puts@s
   785  05AC                     l1610:
   786                           
   787                           ;lcd.c: 224: void lcd_puts(const char* s);lcd.c: 225: {;lcd.c: 229:  while(*s)
   788  05AC  2DBF               	goto	l1616
   789  05AD                     l1612:
   790                           
   791                           ;lcd.c: 230:   {;lcd.c: 231:   lcd_putc(*s++);
   792  05AD  083E               	movf	lcd_puts@s,w
   793  05AE  0084               	movwf	4
   794  05AF  120A  118A  2586  120A  118A  	fcall	stringdir
   795  05B4  120A  118A  224A  120A  118A  	fcall	_lcd_putc
   796  05B9                     l1614:
   797  05B9  3001               	movlw	1
   798  05BA  1283               	bcf	3,5	;RP0=0, select bank0
   799  05BB  1303               	bcf	3,6	;RP1=0, select bank0
   800  05BC  00BD               	movwf	??_lcd_puts
   801  05BD  083D               	movf	??_lcd_puts,w
   802  05BE  07BE               	addwf	lcd_puts@s,f
   803  05BF                     l1616:
   804                           
   805                           ;lcd.c: 229:  while(*s)
   806  05BF  083E               	movf	lcd_puts@s,w
   807  05C0  0084               	movwf	4
   808  05C1  120A  118A  2586  120A  118A  	fcall	stringdir
   809  05C6  3A00               	xorlw	0
   810  05C7  1D03               	skipz
   811  05C8  2DCA               	goto	u1231
   812  05C9  2DCB               	goto	u1230
   813  05CA                     u1231:
   814  05CA  2DAD               	goto	l1612
   815  05CB                     u1230:
   816  05CB                     l78:
   817  05CB  0008               	return
   818  05CC                     __end_of_lcd_puts:
   819                           
   820                           	psect	text2
   821  024A                     __ptext2:	
   822 ;; *************** function _lcd_putc *****************
   823 ;; Defined at:
   824 ;;		line 190 in file "lcd.c"
   825 ;; Parameters:    Size  Location     Type
   826 ;;  c               1    wreg     unsigned char 
   827 ;; Auto vars:     Size  Location     Type
   828 ;;  c               1   28[BANK0 ] unsigned char 
   829 ;; Return value:  Size  Location     Type
   830 ;;                  1    wreg      void 
   831 ;; Registers used:
   832 ;;		wreg, fsr0l, fsr0h, status,2, status,0, pclath, cstack
   833 ;; Tracked objects:
   834 ;;		On entry : 0/0
   835 ;;		On exit  : 0/0
   836 ;;		Unchanged: 0/0
   837 ;; Data sizes:     COMMON   BANK0   BANK1   BANK3   BANK2
   838 ;;      Params:         0       0       0       0       0
   839 ;;      Locals:         0       1       0       0       0
   840 ;;      Temps:          0       2       0       0       0
   841 ;;      Totals:         0       3       0       0       0
   842 ;;Total ram usage:        3 bytes
   843 ;; Hardware stack levels used: 1
   844 ;; Hardware stack levels required when called: 10
   845 ;; This function calls:
   846 ;;		_lcd_busy
   847 ;;		_lcd_gotoxy
   848 ;;		_lcd_put_byte
   849 ;; This function is called by:
   850 ;;		_lcd_puts
   851 ;;		_lcd_String_Delay
   852 ;; This function uses a non-reentrant model
   853 ;;
   854                           
   855                           
   856                           ;psect for function _lcd_putc
   857  024A                     _lcd_putc:
   858                           
   859                           ;incstack = 0
   860 ;; hardware stack exceeded
   861                           ; Regs used in _lcd_putc: [wreg-fsr0h+status,2+status,0+pclath+cstack]
   862                           ;lcd_putc@c stored from wreg
   863  024A  1283               	bcf	3,5	;RP0=0, select bank0
   864  024B  1303               	bcf	3,6	;RP1=0, select bank0
   865  024C  00BC               	movwf	lcd_putc@c
   866  024D                     l1536:
   867                           
   868                           ;lcd.c: 190: void lcd_putc(char c);lcd.c: 191: {;lcd.c: 195:  switch(c)
   869  024D  2A94               	goto	l1552
   870  024E                     l1538:
   871                           
   872                           ;lcd.c: 198:    lcd_put_byte(0,1);
   873  024E  01B3               	clrf	lcd_put_byte@b
   874  024F  0AB3               	incf	lcd_put_byte@b,f
   875  0250  3000               	movlw	0
   876  0251  120A  118A  241E  120A  118A  	fcall	_lcd_put_byte
   877  0256                     l1540:	
   878                           ;lcd.c: 199:    while(lcd_busy());
   879                           
   880  0256  120A  118A  24D0  120A  118A  	fcall	_lcd_busy
   881  025B  3A00               	xorlw	0
   882  025C  1D03               	skipz
   883  025D  2A5F               	goto	u1071
   884  025E  2A60               	goto	u1070
   885  025F                     u1071:
   886  025F  2A56               	goto	l1540
   887  0260                     u1070:
   888  0260  2AA7               	goto	l72
   889  0261                     l1542:
   890                           
   891                           ;lcd.c: 202:    lcd_gotoxy(0,1);
   892  0261  01B6               	clrf	lcd_gotoxy@row
   893  0262  0AB6               	incf	lcd_gotoxy@row,f
   894  0263  3000               	movlw	0
   895  0264  120A  118A  2538  120A  118A  	fcall	_lcd_gotoxy
   896                           
   897                           ;lcd.c: 203:    break;
   898  0269  2AA7               	goto	l72
   899  026A                     l1544:
   900                           
   901                           ;lcd.c: 205:    lcd_put_byte(0,0x10);
   902  026A  3010               	movlw	16
   903  026B  00BA               	movwf	??_lcd_putc
   904  026C  083A               	movf	??_lcd_putc,w
   905  026D  00B3               	movwf	lcd_put_byte@b
   906  026E  3000               	movlw	0
   907  026F  120A  118A  241E  120A  118A  	fcall	_lcd_put_byte
   908  0274                     l1546:	
   909                           ;lcd.c: 206:    while(lcd_busy());
   910                           
   911  0274  120A  118A  24D0  120A  118A  	fcall	_lcd_busy
   912  0279  3A00               	xorlw	0
   913  027A  1D03               	skipz
   914  027B  2A7D               	goto	u1081
   915  027C  2A7E               	goto	u1080
   916  027D                     u1081:
   917  027D  2A74               	goto	l1546
   918  027E                     u1080:
   919  027E  2AA7               	goto	l72
   920  027F                     l1548:
   921                           
   922                           ;lcd.c: 210:     {;lcd.c: 211:     lcd_put_byte(1,c);
   923  027F  083C               	movf	lcd_putc@c,w
   924  0280  00BA               	movwf	??_lcd_putc
   925  0281  083A               	movf	??_lcd_putc,w
   926  0282  00B3               	movwf	lcd_put_byte@b
   927  0283  3001               	movlw	1
   928  0284  120A  118A  241E  120A  118A  	fcall	_lcd_put_byte
   929  0289                     l1550:	
   930                           ;lcd.c: 212:     while(lcd_busy());
   931                           
   932  0289  120A  118A  24D0  120A  118A  	fcall	_lcd_busy
   933  028E  3A00               	xorlw	0
   934  028F  1D03               	skipz
   935  0290  2A92               	goto	u1091
   936  0291  2A93               	goto	u1090
   937  0292                     u1091:
   938  0292  2A89               	goto	l1550
   939  0293                     u1090:
   940  0293  2AA7               	goto	l72
   941  0294                     l1552:
   942  0294  083C               	movf	lcd_putc@c,w
   943  0295  00BA               	movwf	??_lcd_putc
   944  0296  01BB               	clrf	??_lcd_putc+1
   945                           
   946                           ; Switch on 2 bytes has been partitioned into a top level switch of size 1, and 1 sub-sw
      +                          itches
   947                           ; Switch size 1, requested type "simple"
   948                           ; Number of cases is 1, Range of values is 0 to 0
   949                           ; switch strategies available:
   950                           ; Name         Instructions Cycles
   951                           ; simple_byte            4     3 (average)
   952                           ; direct_byte           11     8 (fixed)
   953                           ; jumptable            260     6 (fixed)
   954                           ;	Chosen strategy is simple_byte
   955  0297  083B               	movf	??_lcd_putc+1,w
   956  0298  3A00               	xorlw	0	; case 0
   957  0299  1903               	skipnz
   958  029A  2A9C               	goto	l1904
   959  029B  2A7F               	goto	l1548
   960  029C                     l1904:
   961                           
   962                           ; Switch size 1, requested type "simple"
   963                           ; Number of cases is 3, Range of values is 8 to 12
   964                           ; switch strategies available:
   965                           ; Name         Instructions Cycles
   966                           ; simple_byte           10     6 (average)
   967                           ; direct_byte           26    11 (fixed)
   968                           ; jumptable            263     9 (fixed)
   969                           ;	Chosen strategy is simple_byte
   970  029C  083A               	movf	??_lcd_putc,w
   971  029D  3A08               	xorlw	8	; case 8
   972  029E  1903               	skipnz
   973  029F  2A6A               	goto	l1544
   974  02A0  3A02               	xorlw	2	; case 10
   975  02A1  1903               	skipnz
   976  02A2  2A61               	goto	l1542
   977  02A3  3A06               	xorlw	6	; case 12
   978  02A4  1903               	skipnz
   979  02A5  2A4E               	goto	l1538
   980  02A6  2A7F               	goto	l1548
   981  02A7                     l72:
   982  02A7  0008               	return
   983  02A8                     __end_of_lcd_putc:
   984                           
   985                           	psect	text3
   986  0538                     __ptext3:	
   987 ;; *************** function _lcd_gotoxy *****************
   988 ;; Defined at:
   989 ;;		line 167 in file "lcd.c"
   990 ;; Parameters:    Size  Location     Type
   991 ;;  col             1    wreg     unsigned char 
   992 ;;  row             1   22[BANK0 ] unsigned char 
   993 ;; Auto vars:     Size  Location     Type
   994 ;;  col             1   24[BANK0 ] unsigned char 
   995 ;;  address         1   25[BANK0 ] unsigned char 
   996 ;; Return value:  Size  Location     Type
   997 ;;                  1    wreg      void 
   998 ;; Registers used:
   999 ;;		wreg, status,2, status,0, pclath, cstack
  1000 ;; Tracked objects:
  1001 ;;		On entry : 0/0
  1002 ;;		On exit  : 0/0
  1003 ;;		Unchanged: 0/0
  1004 ;; Data sizes:     COMMON   BANK0   BANK1   BANK3   BANK2
  1005 ;;      Params:         0       1       0       0       0
  1006 ;;      Locals:         0       2       0       0       0
  1007 ;;      Temps:          0       1       0       0       0
  1008 ;;      Totals:         0       4       0       0       0
  1009 ;;Total ram usage:        4 bytes
  1010 ;; Hardware stack levels used: 1
  1011 ;; Hardware stack levels required when called: 9
  1012 ;; This function calls:
  1013 ;;		_lcd_busy
  1014 ;;		_lcd_put_byte
  1015 ;; This function is called by:
  1016 ;;		_lcd_putc
  1017 ;;		_main
  1018 ;; This function uses a non-reentrant model
  1019 ;;
  1020                           
  1021                           
  1022                           ;psect for function _lcd_gotoxy
  1023  0538                     _lcd_gotoxy:
  1024                           
  1025                           ;incstack = 0
  1026 ;; hardware stack exceeded
  1027                           ; Regs used in _lcd_gotoxy: [wreg+status,2+status,0+pclath+cstack]
  1028                           ;lcd_gotoxy@col stored from wreg
  1029  0538  1283               	bcf	3,5	;RP0=0, select bank0
  1030  0539  1303               	bcf	3,6	;RP1=0, select bank0
  1031  053A  00B8               	movwf	lcd_gotoxy@col
  1032  053B                     l1502:
  1033                           
  1034                           ;lcd.c: 167: void lcd_gotoxy(unsigned char col, unsigned char row);lcd.c: 168: {;lcd.c: 
      +                          170:  unsigned char address;;lcd.c: 173:  if(row!=0)
  1035  053B  0836               	movf	lcd_gotoxy@row,w
  1036  053C  1903               	btfsc	3,2
  1037  053D  2D3F               	goto	u1021
  1038  053E  2D40               	goto	u1020
  1039  053F                     u1021:
  1040  053F  2D45               	goto	l1506
  1041  0540                     u1020:
  1042  0540                     l1504:
  1043                           
  1044                           ;lcd.c: 174:   address=0x40;
  1045  0540  3040               	movlw	64
  1046  0541  00B7               	movwf	??_lcd_gotoxy
  1047  0542  0837               	movf	??_lcd_gotoxy,w
  1048  0543  00B9               	movwf	lcd_gotoxy@address
  1049  0544  2D46               	goto	l1508
  1050  0545                     l1506:
  1051                           
  1052                           ;lcd.c: 176:   address=0;
  1053  0545  01B9               	clrf	lcd_gotoxy@address
  1054  0546                     l1508:
  1055                           
  1056                           ;lcd.c: 178:  address += col;
  1057  0546  0838               	movf	lcd_gotoxy@col,w
  1058  0547  00B7               	movwf	??_lcd_gotoxy
  1059  0548  0837               	movf	??_lcd_gotoxy,w
  1060  0549  07B9               	addwf	lcd_gotoxy@address,f
  1061  054A                     l1510:
  1062                           
  1063                           ;lcd.c: 180:  lcd_put_byte(0,0x80|address);
  1064  054A  0839               	movf	lcd_gotoxy@address,w
  1065  054B  3880               	iorlw	128
  1066  054C  00B7               	movwf	??_lcd_gotoxy
  1067  054D  0837               	movf	??_lcd_gotoxy,w
  1068  054E  00B3               	movwf	lcd_put_byte@b
  1069  054F  3000               	movlw	0
  1070  0550  120A  118A  241E  120A  118A  	fcall	_lcd_put_byte
  1071  0555                     l1512:	
  1072                           ;lcd.c: 181:  while(lcd_busy());
  1073                           
  1074  0555  120A  118A  24D0  120A  118A  	fcall	_lcd_busy
  1075  055A  3A00               	xorlw	0
  1076  055B  1D03               	skipz
  1077  055C  2D5E               	goto	u1031
  1078  055D  2D5F               	goto	u1030
  1079  055E                     u1031:
  1080  055E  2D55               	goto	l1512
  1081  055F                     u1030:
  1082  055F                     l54:
  1083  055F  0008               	return
  1084  0560                     __end_of_lcd_gotoxy:
  1085                           
  1086                           	psect	text4
  1087  00F8                     __ptext4:	
  1088 ;; *************** function _lcd_init *****************
  1089 ;; Defined at:
  1090 ;;		line 241 in file "lcd.c"
  1091 ;; Parameters:    Size  Location     Type
  1092 ;;		None
  1093 ;; Auto vars:     Size  Location     Type
  1094 ;;  i               1    0        unsigned char 
  1095 ;; Return value:  Size  Location     Type
  1096 ;;                  1    wreg      void 
  1097 ;; Registers used:
  1098 ;;		wreg, status,2, status,0, pclath, cstack
  1099 ;; Tracked objects:
  1100 ;;		On entry : 0/0
  1101 ;;		On exit  : 0/0
  1102 ;;		Unchanged: 0/0
  1103 ;; Data sizes:     COMMON   BANK0   BANK1   BANK3   BANK2
  1104 ;;      Params:         0       0       0       0       0
  1105 ;;      Locals:         0       0       0       0       0
  1106 ;;      Temps:          0       2       0       0       0
  1107 ;;      Totals:         0       2       0       0       0
  1108 ;;Total ram usage:        2 bytes
  1109 ;; Hardware stack levels used: 1
  1110 ;; Hardware stack levels required when called: 9
  1111 ;; This function calls:
  1112 ;;		_lcd_busy
  1113 ;;		_lcd_put_byte
  1114 ;;		_lcd_put_nibble
  1115 ;; This function is called by:
  1116 ;;		_main
  1117 ;; This function uses a non-reentrant model
  1118 ;;
  1119                           
  1120                           
  1121                           ;psect for function _lcd_init
  1122  00F8                     _lcd_init:
  1123  00F8                     l1618:	
  1124                           ;incstack = 0
  1125 ;; hardware stack exceeded
  1126                           ; Regs used in _lcd_init: [wreg+status,2+status,0+pclath+cstack]
  1127                           
  1128                           
  1129                           ;lcd.c: 244: unsigned char i;;lcd.c: 247:  TRISD3 = 0;
  1130  00F8  1683               	bsf	3,5	;RP0=1, select bank1
  1131  00F9  1303               	bcf	3,6	;RP1=0, select bank1
  1132  00FA  1188               	bcf	8,3	;volatile
  1133                           
  1134                           ;lcd.c: 248:  TRISD1 = 0;
  1135  00FB  1088               	bcf	8,1	;volatile
  1136                           
  1137                           ;lcd.c: 249:  TRISD2 = 0;
  1138  00FC  1108               	bcf	8,2	;volatile
  1139                           
  1140                           ;lcd.c: 250:  TRISD4 = 0;
  1141  00FD  1208               	bcf	8,4	;volatile
  1142                           
  1143                           ;lcd.c: 251:  TRISD5 = 0;
  1144  00FE  1288               	bcf	8,5	;volatile
  1145                           
  1146                           ;lcd.c: 252:  TRISD6 = 0;
  1147  00FF  1308               	bcf	8,6	;volatile
  1148                           
  1149                           ;lcd.c: 253:  TRISD7 = 0;
  1150  0100  1388               	bcf	8,7	;volatile
  1151  0101                     l1620:
  1152                           
  1153                           ;lcd.c: 255:  _delay((unsigned long)((15)*(4000000/4000.0)));
  1154  0101  3014               	movlw	20
  1155  0102  1283               	bcf	3,5	;RP0=0, select bank0
  1156  0103  1303               	bcf	3,6	;RP1=0, select bank0
  1157  0104  00B7               	movwf	??_lcd_init+1
  1158  0105  3079               	movlw	121
  1159  0106  00B6               	movwf	??_lcd_init
  1160  0107                     u1497:
  1161  0107  0BB6               	decfsz	??_lcd_init,f
  1162  0108  2907               	goto	u1497
  1163  0109  0BB7               	decfsz	??_lcd_init+1,f
  1164  010A  2907               	goto	u1497
  1165  010B                     l1622:
  1166                           
  1167                           ;lcd.c: 257:  RD1 = 0;
  1168  010B  1283               	bcf	3,5	;RP0=0, select bank0
  1169  010C  1303               	bcf	3,6	;RP1=0, select bank0
  1170  010D  1088               	bcf	8,1	;volatile
  1171  010E                     l1624:
  1172                           
  1173                           ;lcd.c: 258:  RD2 = 0;
  1174  010E  1108               	bcf	8,2	;volatile
  1175  010F                     l1626:
  1176                           
  1177                           ;lcd.c: 259:  RD3 = 0;
  1178  010F  1188               	bcf	8,3	;volatile
  1179  0110                     l1628:
  1180                           
  1181                           ;lcd.c: 261:  lcd_put_nibble(3);
  1182  0110  3003               	movlw	3
  1183  0111  120A  118A  2304  120A  118A  	fcall	_lcd_put_nibble
  1184  0116                     l1630:
  1185                           
  1186                           ;lcd.c: 262:  _delay((unsigned long)((10)*(4000000/4000.0)));
  1187  0116  300D               	movlw	13
  1188  0117  1283               	bcf	3,5	;RP0=0, select bank0
  1189  0118  1303               	bcf	3,6	;RP1=0, select bank0
  1190  0119  00B7               	movwf	??_lcd_init+1
  1191  011A  30FB               	movlw	251
  1192  011B  00B6               	movwf	??_lcd_init
  1193  011C                     u1507:
  1194  011C  0BB6               	decfsz	??_lcd_init,f
  1195  011D  291C               	goto	u1507
  1196  011E  0BB7               	decfsz	??_lcd_init+1,f
  1197  011F  291C               	goto	u1507
  1198                           
  1199                           ;lcd.c: 263:  lcd_put_nibble(3);
  1200  0120  3003               	movlw	3
  1201  0121  120A  118A  2304  120A  118A  	fcall	_lcd_put_nibble
  1202  0126                     l1632:
  1203                           
  1204                           ;lcd.c: 264:  _delay((unsigned long)((10)*(4000000/4000.0)));
  1205  0126  300D               	movlw	13
  1206  0127  1283               	bcf	3,5	;RP0=0, select bank0
  1207  0128  1303               	bcf	3,6	;RP1=0, select bank0
  1208  0129  00B7               	movwf	??_lcd_init+1
  1209  012A  30FB               	movlw	251
  1210  012B  00B6               	movwf	??_lcd_init
  1211  012C                     u1517:
  1212  012C  0BB6               	decfsz	??_lcd_init,f
  1213  012D  292C               	goto	u1517
  1214  012E  0BB7               	decfsz	??_lcd_init+1,f
  1215  012F  292C               	goto	u1517
  1216  0130                     l1634:
  1217                           
  1218                           ;lcd.c: 265:  lcd_put_nibble(3);
  1219  0130  3003               	movlw	3
  1220  0131  120A  118A  2304  120A  118A  	fcall	_lcd_put_nibble
  1221                           
  1222                           ;lcd.c: 266:  _delay((unsigned long)((10)*(4000000/4000.0)));
  1223  0136  300D               	movlw	13
  1224  0137  1283               	bcf	3,5	;RP0=0, select bank0
  1225  0138  1303               	bcf	3,6	;RP1=0, select bank0
  1226  0139  00B7               	movwf	??_lcd_init+1
  1227  013A  30FB               	movlw	251
  1228  013B  00B6               	movwf	??_lcd_init
  1229  013C                     u1527:
  1230  013C  0BB6               	decfsz	??_lcd_init,f
  1231  013D  293C               	goto	u1527
  1232  013E  0BB7               	decfsz	??_lcd_init+1,f
  1233  013F  293C               	goto	u1527
  1234  0140                     l1636:
  1235                           
  1236                           ;lcd.c: 268:  lcd_put_nibble(2);
  1237  0140  3002               	movlw	2
  1238  0141  120A  118A  2304  120A  118A  	fcall	_lcd_put_nibble
  1239  0146                     l1638:	
  1240                           ;lcd.c: 269:  while(lcd_busy());
  1241                           
  1242  0146  120A  118A  24D0  120A  118A  	fcall	_lcd_busy
  1243  014B  3A00               	xorlw	0
  1244  014C  1D03               	skipz
  1245  014D  294F               	goto	u1241
  1246  014E  2950               	goto	u1240
  1247  014F                     u1241:
  1248  014F  2946               	goto	l1638
  1249  0150                     u1240:
  1250  0150                     l1640:
  1251                           
  1252                           ;lcd.c: 271:  lcd_put_byte(0,0b00101100 & 0b00111000);
  1253  0150  3028               	movlw	40
  1254  0151  1283               	bcf	3,5	;RP0=0, select bank0
  1255  0152  1303               	bcf	3,6	;RP1=0, select bank0
  1256  0153  00B6               	movwf	??_lcd_init
  1257  0154  0836               	movf	??_lcd_init,w
  1258  0155  00B3               	movwf	lcd_put_byte@b
  1259  0156  3000               	movlw	0
  1260  0157  120A  118A  241E  120A  118A  	fcall	_lcd_put_byte
  1261  015C                     l1642:	
  1262                           ;lcd.c: 272:  while(lcd_busy());
  1263                           
  1264  015C  120A  118A  24D0  120A  118A  	fcall	_lcd_busy
  1265  0161  3A00               	xorlw	0
  1266  0162  1D03               	skipz
  1267  0163  2965               	goto	u1251
  1268  0164  2966               	goto	u1250
  1269  0165                     u1251:
  1270  0165  295C               	goto	l1642
  1271  0166                     u1250:
  1272  0166                     l1644:
  1273                           
  1274                           ;lcd.c: 274:  lcd_put_byte(0,0b00001111 & 0b00001101 & 0b00001110);
  1275  0166  300C               	movlw	12
  1276  0167  1283               	bcf	3,5	;RP0=0, select bank0
  1277  0168  1303               	bcf	3,6	;RP1=0, select bank0
  1278  0169  00B6               	movwf	??_lcd_init
  1279  016A  0836               	movf	??_lcd_init,w
  1280  016B  00B3               	movwf	lcd_put_byte@b
  1281  016C  3000               	movlw	0
  1282  016D  120A  118A  241E  120A  118A  	fcall	_lcd_put_byte
  1283  0172                     l1646:	
  1284                           ;lcd.c: 275:  while(lcd_busy());
  1285                           
  1286  0172  120A  118A  24D0  120A  118A  	fcall	_lcd_busy
  1287  0177  3A00               	xorlw	0
  1288  0178  1D03               	skipz
  1289  0179  297B               	goto	u1261
  1290  017A  297C               	goto	u1260
  1291  017B                     u1261:
  1292  017B  2972               	goto	l1646
  1293  017C                     u1260:
  1294  017C                     l1648:
  1295                           
  1296                           ;lcd.c: 277:  lcd_put_byte(0,0x01);
  1297  017C  1283               	bcf	3,5	;RP0=0, select bank0
  1298  017D  1303               	bcf	3,6	;RP1=0, select bank0
  1299  017E  01B3               	clrf	lcd_put_byte@b
  1300  017F  0AB3               	incf	lcd_put_byte@b,f
  1301  0180  3000               	movlw	0
  1302  0181  120A  118A  241E  120A  118A  	fcall	_lcd_put_byte
  1303  0186                     l1650:	
  1304                           ;lcd.c: 278:  while(lcd_busy());
  1305                           
  1306  0186  120A  118A  24D0  120A  118A  	fcall	_lcd_busy
  1307  018B  3A00               	xorlw	0
  1308  018C  1D03               	skipz
  1309  018D  298F               	goto	u1271
  1310  018E  2990               	goto	u1270
  1311  018F                     u1271:
  1312  018F  2986               	goto	l1650
  1313  0190                     u1270:
  1314  0190                     l1652:
  1315                           
  1316                           ;lcd.c: 280:  lcd_put_byte(0,0b00000110);
  1317  0190  3006               	movlw	6
  1318  0191  1283               	bcf	3,5	;RP0=0, select bank0
  1319  0192  1303               	bcf	3,6	;RP1=0, select bank0
  1320  0193  00B6               	movwf	??_lcd_init
  1321  0194  0836               	movf	??_lcd_init,w
  1322  0195  00B3               	movwf	lcd_put_byte@b
  1323  0196  3000               	movlw	0
  1324  0197  120A  118A  241E  120A  118A  	fcall	_lcd_put_byte
  1325  019C                     l1654:	
  1326                           ;lcd.c: 281:  while(lcd_busy());
  1327                           
  1328  019C  120A  118A  24D0  120A  118A  	fcall	_lcd_busy
  1329  01A1  3A00               	xorlw	0
  1330  01A2  1D03               	skipz
  1331  01A3  29A5               	goto	u1281
  1332  01A4  29A6               	goto	u1280
  1333  01A5                     u1281:
  1334  01A5  299C               	goto	l1654
  1335  01A6                     u1280:
  1336  01A6                     l96:
  1337  01A6  0008               	return
  1338  01A7                     __end_of_lcd_init:
  1339                           
  1340                           	psect	text5
  1341  041E                     __ptext5:	
  1342 ;; *************** function _lcd_put_byte *****************
  1343 ;; Defined at:
  1344 ;;		line 134 in file "lcd.c"
  1345 ;; Parameters:    Size  Location     Type
  1346 ;;  rs              1    wreg     unsigned char 
  1347 ;;  b               1   19[BANK0 ] unsigned char 
  1348 ;; Auto vars:     Size  Location     Type
  1349 ;;  rs              1   21[BANK0 ] unsigned char 
  1350 ;; Return value:  Size  Location     Type
  1351 ;;                  1    wreg      void 
  1352 ;; Registers used:
  1353 ;;		wreg, status,2, status,0, pclath, cstack
  1354 ;; Tracked objects:
  1355 ;;		On entry : 0/0
  1356 ;;		On exit  : 0/0
  1357 ;;		Unchanged: 0/0
  1358 ;; Data sizes:     COMMON   BANK0   BANK1   BANK3   BANK2
  1359 ;;      Params:         0       1       0       0       0
  1360 ;;      Locals:         0       1       0       0       0
  1361 ;;      Temps:          0       1       0       0       0
  1362 ;;      Totals:         0       3       0       0       0
  1363 ;;Total ram usage:        3 bytes
  1364 ;; Hardware stack levels used: 1
  1365 ;; Hardware stack levels required when called: 8
  1366 ;; This function calls:
  1367 ;;		_lcd_put_nibble
  1368 ;; This function is called by:
  1369 ;;		_lcd_gotoxy
  1370 ;;		_lcd_putc
  1371 ;;		_lcd_init
  1372 ;;		_lcd_ShiftLeft
  1373 ;;		_lcd_ShiftRight
  1374 ;;		_addCharSpecial
  1375 ;; This function uses a non-reentrant model
  1376 ;;
  1377                           
  1378                           
  1379                           ;psect for function _lcd_put_byte
  1380  041E                     _lcd_put_byte:
  1381                           
  1382                           ;incstack = 0
  1383 ;; hardware stack exceeded
  1384                           ; Regs used in _lcd_put_byte: [wreg+status,2+status,0+pclath+cstack]
  1385                           ;lcd_put_byte@rs stored from wreg
  1386  041E  1283               	bcf	3,5	;RP0=0, select bank0
  1387  041F  1303               	bcf	3,6	;RP1=0, select bank0
  1388  0420  00B5               	movwf	lcd_put_byte@rs
  1389  0421                     l1474:
  1390                           
  1391                           ;lcd.c: 134: void lcd_put_byte(unsigned char rs, unsigned char b);lcd.c: 135: {;lcd.c: 1
      +                          39:  TRISD4 = 0;
  1392  0421  1683               	bsf	3,5	;RP0=1, select bank1
  1393  0422  1303               	bcf	3,6	;RP1=0, select bank1
  1394  0423  1208               	bcf	8,4	;volatile
  1395                           
  1396                           ;lcd.c: 140:  TRISD5 = 0;
  1397  0424  1288               	bcf	8,5	;volatile
  1398                           
  1399                           ;lcd.c: 141:  TRISD6 = 0;
  1400  0425  1308               	bcf	8,6	;volatile
  1401                           
  1402                           ;lcd.c: 142:  TRISD7 = 0;
  1403  0426  1388               	bcf	8,7	;volatile
  1404  0427                     l1476:
  1405                           
  1406                           ;lcd.c: 144:  if(rs)
  1407  0427  1283               	bcf	3,5	;RP0=0, select bank0
  1408  0428  1303               	bcf	3,6	;RP1=0, select bank0
  1409  0429  0835               	movf	lcd_put_byte@rs,w
  1410  042A  1903               	btfsc	3,2
  1411  042B  2C2D               	goto	u981
  1412  042C  2C2E               	goto	u980
  1413  042D                     u981:
  1414  042D  2C30               	goto	l44
  1415  042E                     u980:
  1416  042E                     l1478:
  1417                           
  1418                           ;lcd.c: 145:   RD1 = 1;
  1419  042E  1488               	bsf	8,1	;volatile
  1420  042F  2C31               	goto	l1480
  1421  0430                     l44:	
  1422                           ;lcd.c: 146:  else
  1423                           
  1424                           
  1425                           ;lcd.c: 147:   RD1 = 0;
  1426  0430  1088               	bcf	8,1	;volatile
  1427  0431                     l1480:
  1428                           
  1429                           ;lcd.c: 148:  _delay((unsigned long)((20)*(4000000/4000000.0)));
  1430  0431  3005               	movlw	5
  1431  0432  1283               	bcf	3,5	;RP0=0, select bank0
  1432  0433  1303               	bcf	3,6	;RP1=0, select bank0
  1433  0434  00B4               	movwf	??_lcd_put_byte
  1434  0435                     u1537:
  1435  0435  0BB4               	decfsz	??_lcd_put_byte,f
  1436  0436  2C35               	goto	u1537
  1437  0437  2C38               	nop2
  1438  0438                     l1482:
  1439                           
  1440                           ;lcd.c: 150:  RD2 = 0;
  1441  0438  1283               	bcf	3,5	;RP0=0, select bank0
  1442  0439  1303               	bcf	3,6	;RP1=0, select bank0
  1443  043A  1108               	bcf	8,2	;volatile
  1444                           
  1445                           ;lcd.c: 151:  _delay((unsigned long)((20)*(4000000/4000000.0)));
  1446  043B  3005               	movlw	5
  1447  043C  1283               	bcf	3,5	;RP0=0, select bank0
  1448  043D  1303               	bcf	3,6	;RP1=0, select bank0
  1449  043E  00B4               	movwf	??_lcd_put_byte
  1450  043F                     u1547:
  1451  043F  0BB4               	decfsz	??_lcd_put_byte,f
  1452  0440  2C3F               	goto	u1547
  1453  0441  2C42               	nop2
  1454  0442                     l1484:
  1455                           
  1456                           ;lcd.c: 153:  RD3 = 0;
  1457  0442  1283               	bcf	3,5	;RP0=0, select bank0
  1458  0443  1303               	bcf	3,6	;RP1=0, select bank0
  1459  0444  1188               	bcf	8,3	;volatile
  1460  0445                     l1486:
  1461                           
  1462                           ;lcd.c: 155:  lcd_put_nibble(b >> 4);
  1463  0445  0833               	movf	lcd_put_byte@b,w
  1464  0446  00B4               	movwf	??_lcd_put_byte
  1465  0447  3004               	movlw	4
  1466  0448                     u995:
  1467  0448  1003               	clrc
  1468  0449  0CB4               	rrf	??_lcd_put_byte,f
  1469  044A  3EFF               	addlw	-1
  1470  044B  1D03               	skipz
  1471  044C  2C48               	goto	u995
  1472  044D  0834               	movf	??_lcd_put_byte,w
  1473  044E  120A  118A  2304  120A  118A  	fcall	_lcd_put_nibble
  1474  0453                     l1488:
  1475                           
  1476                           ;lcd.c: 157:  lcd_put_nibble(b & 0xf);
  1477  0453  1283               	bcf	3,5	;RP0=0, select bank0
  1478  0454  1303               	bcf	3,6	;RP1=0, select bank0
  1479  0455  0833               	movf	lcd_put_byte@b,w
  1480  0456  390F               	andlw	15
  1481  0457  120A  118A  2304  120A  118A  	fcall	_lcd_put_nibble
  1482  045C                     l46:
  1483  045C  0008               	return
  1484  045D                     __end_of_lcd_put_byte:
  1485                           
  1486                           	psect	text6
  1487  0304                     __ptext6:	
  1488 ;; *************** function _lcd_put_nibble *****************
  1489 ;; Defined at:
  1490 ;;		line 103 in file "lcd.c"
  1491 ;; Parameters:    Size  Location     Type
  1492 ;;  b               1    wreg     unsigned char 
  1493 ;; Auto vars:     Size  Location     Type
  1494 ;;  b               1   17[BANK0 ] unsigned char 
  1495 ;;  temp            1   18[BANK0 ] struct _BYTE_VAL
  1496 ;; Return value:  Size  Location     Type
  1497 ;;                  1    wreg      void 
  1498 ;; Registers used:
  1499 ;;		wreg
  1500 ;; Tracked objects:
  1501 ;;		On entry : 0/0
  1502 ;;		On exit  : 0/0
  1503 ;;		Unchanged: 0/0
  1504 ;; Data sizes:     COMMON   BANK0   BANK1   BANK3   BANK2
  1505 ;;      Params:         0       0       0       0       0
  1506 ;;      Locals:         0       2       0       0       0
  1507 ;;      Temps:          0       1       0       0       0
  1508 ;;      Totals:         0       3       0       0       0
  1509 ;;Total ram usage:        3 bytes
  1510 ;; Hardware stack levels used: 1
  1511 ;; Hardware stack levels required when called: 7
  1512 ;; This function calls:
  1513 ;;		Nothing
  1514 ;; This function is called by:
  1515 ;;		_lcd_put_byte
  1516 ;;		_lcd_init
  1517 ;; This function uses a non-reentrant model
  1518 ;;
  1519                           
  1520                           
  1521                           ;psect for function _lcd_put_nibble
  1522  0304                     _lcd_put_nibble:
  1523                           
  1524                           ;incstack = 0
  1525 ;; hardware stack exceeded
  1526                           ; Regs used in _lcd_put_nibble: [wreg]
  1527                           ;lcd_put_nibble@b stored from wreg
  1528  0304  1283               	bcf	3,5	;RP0=0, select bank0
  1529  0305  1303               	bcf	3,6	;RP1=0, select bank0
  1530  0306  00B1               	movwf	lcd_put_nibble@b
  1531  0307                     l1398:
  1532                           
  1533                           ;lcd.c: 103: void lcd_put_nibble(unsigned char b);lcd.c: 104: {;lcd.c: 106:  BYTE_VAL te
      +                          mp;;lcd.c: 109:  TRISD4 = 0;
  1534  0307  1683               	bsf	3,5	;RP0=1, select bank1
  1535  0308  1303               	bcf	3,6	;RP1=0, select bank1
  1536  0309  1208               	bcf	8,4	;volatile
  1537                           
  1538                           ;lcd.c: 110:  TRISD5 = 0;
  1539  030A  1288               	bcf	8,5	;volatile
  1540                           
  1541                           ;lcd.c: 111:  TRISD6 = 0;
  1542  030B  1308               	bcf	8,6	;volatile
  1543                           
  1544                           ;lcd.c: 112:  TRISD7 = 0;
  1545  030C  1388               	bcf	8,7	;volatile
  1546  030D                     l1400:
  1547                           
  1548                           ;lcd.c: 114:  temp.Val = b;
  1549  030D  1283               	bcf	3,5	;RP0=0, select bank0
  1550  030E  1303               	bcf	3,6	;RP1=0, select bank0
  1551  030F  0831               	movf	lcd_put_nibble@b,w
  1552  0310  00B0               	movwf	??_lcd_put_nibble
  1553  0311  0830               	movf	??_lcd_put_nibble,w
  1554  0312  00B2               	movwf	lcd_put_nibble@temp
  1555  0313                     l1402:
  1556                           
  1557                           ;lcd.c: 116:  RD4 = temp.bits.b0;
  1558  0313  1832               	btfsc	lcd_put_nibble@temp,0
  1559  0314  2B16               	goto	u881
  1560  0315  2B1A               	goto	u880
  1561  0316                     u881:
  1562  0316  1283               	bcf	3,5	;RP0=0, select bank0
  1563  0317  1303               	bcf	3,6	;RP1=0, select bank0
  1564  0318  1608               	bsf	8,4	;volatile
  1565  0319  2B1D               	goto	u894
  1566  031A                     u880:
  1567  031A  1283               	bcf	3,5	;RP0=0, select bank0
  1568  031B  1303               	bcf	3,6	;RP1=0, select bank0
  1569  031C  1208               	bcf	8,4	;volatile
  1570  031D                     u894:
  1571  031D                     l1404:
  1572                           
  1573                           ;lcd.c: 117:  RD5 = temp.bits.b1;
  1574  031D  18B2               	btfsc	lcd_put_nibble@temp,1
  1575  031E  2B20               	goto	u901
  1576  031F  2B24               	goto	u900
  1577  0320                     u901:
  1578  0320  1283               	bcf	3,5	;RP0=0, select bank0
  1579  0321  1303               	bcf	3,6	;RP1=0, select bank0
  1580  0322  1688               	bsf	8,5	;volatile
  1581  0323  2B27               	goto	u914
  1582  0324                     u900:
  1583  0324  1283               	bcf	3,5	;RP0=0, select bank0
  1584  0325  1303               	bcf	3,6	;RP1=0, select bank0
  1585  0326  1288               	bcf	8,5	;volatile
  1586  0327                     u914:
  1587  0327                     l1406:
  1588                           
  1589                           ;lcd.c: 118:  RD6 = temp.bits.b2;
  1590  0327  1932               	btfsc	lcd_put_nibble@temp,2
  1591  0328  2B2A               	goto	u921
  1592  0329  2B2E               	goto	u920
  1593  032A                     u921:
  1594  032A  1283               	bcf	3,5	;RP0=0, select bank0
  1595  032B  1303               	bcf	3,6	;RP1=0, select bank0
  1596  032C  1708               	bsf	8,6	;volatile
  1597  032D  2B31               	goto	u934
  1598  032E                     u920:
  1599  032E  1283               	bcf	3,5	;RP0=0, select bank0
  1600  032F  1303               	bcf	3,6	;RP1=0, select bank0
  1601  0330  1308               	bcf	8,6	;volatile
  1602  0331                     u934:
  1603  0331                     l1408:
  1604                           
  1605                           ;lcd.c: 119:  RD7 = temp.bits.b3;
  1606  0331  19B2               	btfsc	lcd_put_nibble@temp,3
  1607  0332  2B34               	goto	u941
  1608  0333  2B38               	goto	u940
  1609  0334                     u941:
  1610  0334  1283               	bcf	3,5	;RP0=0, select bank0
  1611  0335  1303               	bcf	3,6	;RP1=0, select bank0
  1612  0336  1788               	bsf	8,7	;volatile
  1613  0337  2B3B               	goto	u954
  1614  0338                     u940:
  1615  0338  1283               	bcf	3,5	;RP0=0, select bank0
  1616  0339  1303               	bcf	3,6	;RP1=0, select bank0
  1617  033A  1388               	bcf	8,7	;volatile
  1618  033B                     u954:
  1619                           
  1620                           ;lcd.c: 121:  _delay((unsigned long)((20)*(4000000/4000000.0)));
  1621  033B  3005               	movlw	5
  1622  033C  1283               	bcf	3,5	;RP0=0, select bank0
  1623  033D  1303               	bcf	3,6	;RP1=0, select bank0
  1624  033E  00B0               	movwf	??_lcd_put_nibble
  1625  033F                     u1557:
  1626  033F  0BB0               	decfsz	??_lcd_put_nibble,f
  1627  0340  2B3F               	goto	u1557
  1628  0341  2B42               	nop2
  1629  0342                     l1410:
  1630                           
  1631                           ;lcd.c: 122:  RD3 = 1;
  1632  0342  1283               	bcf	3,5	;RP0=0, select bank0
  1633  0343  1303               	bcf	3,6	;RP1=0, select bank0
  1634  0344  1588               	bsf	8,3	;volatile
  1635                           
  1636                           ;lcd.c: 123:  _delay((unsigned long)((20)*(4000000/4000000.0)));
  1637  0345  3005               	movlw	5
  1638  0346  1283               	bcf	3,5	;RP0=0, select bank0
  1639  0347  1303               	bcf	3,6	;RP1=0, select bank0
  1640  0348  00B0               	movwf	??_lcd_put_nibble
  1641  0349                     u1567:
  1642  0349  0BB0               	decfsz	??_lcd_put_nibble,f
  1643  034A  2B49               	goto	u1567
  1644  034B  2B4C               	nop2
  1645  034C                     l1412:
  1646                           
  1647                           ;lcd.c: 124:  RD3 = 0;
  1648  034C  1283               	bcf	3,5	;RP0=0, select bank0
  1649  034D  1303               	bcf	3,6	;RP1=0, select bank0
  1650  034E  1188               	bcf	8,3	;volatile
  1651  034F                     l41:
  1652  034F  0008               	return
  1653  0350                     __end_of_lcd_put_nibble:
  1654                           
  1655                           	psect	text7
  1656  04D0                     __ptext7:	
  1657 ;; *************** function _lcd_busy *****************
  1658 ;; Defined at:
  1659 ;;		line 18 in file "lcd.c"
  1660 ;; Parameters:    Size  Location     Type
  1661 ;;		None
  1662 ;; Auto vars:     Size  Location     Type
  1663 ;;  busy            1   17[BANK0 ] unsigned char 
  1664 ;; Return value:  Size  Location     Type
  1665 ;;                  1    wreg      unsigned char 
  1666 ;; Registers used:
  1667 ;;		wreg, status,2
  1668 ;; Tracked objects:
  1669 ;;		On entry : 0/0
  1670 ;;		On exit  : 0/0
  1671 ;;		Unchanged: 0/0
  1672 ;; Data sizes:     COMMON   BANK0   BANK1   BANK3   BANK2
  1673 ;;      Params:         0       0       0       0       0
  1674 ;;      Locals:         0       1       0       0       0
  1675 ;;      Temps:          0       1       0       0       0
  1676 ;;      Totals:         0       2       0       0       0
  1677 ;;Total ram usage:        2 bytes
  1678 ;; Hardware stack levels used: 1
  1679 ;; Hardware stack levels required when called: 7
  1680 ;; This function calls:
  1681 ;;		Nothing
  1682 ;; This function is called by:
  1683 ;;		_lcd_gotoxy
  1684 ;;		_lcd_putc
  1685 ;;		_lcd_init
  1686 ;;		_addCharSpecial
  1687 ;; This function uses a non-reentrant model
  1688 ;;
  1689                           
  1690                           
  1691                           ;psect for function _lcd_busy
  1692  04D0                     _lcd_busy:
  1693  04D0                     l1452:	
  1694                           ;incstack = 0
  1695 ;; hardware stack exceeded
  1696                           ; Regs used in _lcd_busy: [wreg+status,2]
  1697                           
  1698                           
  1699                           ;lcd.c: 21: unsigned char busy;;lcd.c: 24:  TRISD4 = 1;
  1700  04D0  1683               	bsf	3,5	;RP0=1, select bank1
  1701  04D1  1303               	bcf	3,6	;RP1=0, select bank1
  1702  04D2  1608               	bsf	8,4	;volatile
  1703                           
  1704                           ;lcd.c: 25:  TRISD5 = 1;
  1705  04D3  1688               	bsf	8,5	;volatile
  1706                           
  1707                           ;lcd.c: 26:  TRISD6 = 1;
  1708  04D4  1708               	bsf	8,6	;volatile
  1709                           
  1710                           ;lcd.c: 27:  TRISD7 = 1;
  1711  04D5  1788               	bsf	8,7	;volatile
  1712                           
  1713                           ;lcd.c: 29:  RD2 = 1;
  1714  04D6  1283               	bcf	3,5	;RP0=0, select bank0
  1715  04D7  1303               	bcf	3,6	;RP1=0, select bank0
  1716  04D8  1508               	bsf	8,2	;volatile
  1717                           
  1718                           ;lcd.c: 30:  RD1 = 0;
  1719  04D9  1088               	bcf	8,1	;volatile
  1720  04DA                     l1454:
  1721                           
  1722                           ;lcd.c: 31:  _delay((unsigned long)((20)*(4000000/4000000.0)));
  1723  04DA  3005               	movlw	5
  1724  04DB  1283               	bcf	3,5	;RP0=0, select bank0
  1725  04DC  1303               	bcf	3,6	;RP1=0, select bank0
  1726  04DD  00B0               	movwf	??_lcd_busy
  1727  04DE                     u1577:
  1728  04DE  0BB0               	decfsz	??_lcd_busy,f
  1729  04DF  2CDE               	goto	u1577
  1730  04E0  2CE1               	nop2
  1731  04E1                     l1456:
  1732                           
  1733                           ;lcd.c: 32:  RD3 = 1;
  1734  04E1  1283               	bcf	3,5	;RP0=0, select bank0
  1735  04E2  1303               	bcf	3,6	;RP1=0, select bank0
  1736  04E3  1588               	bsf	8,3	;volatile
  1737                           
  1738                           ;lcd.c: 33:  _delay((unsigned long)((20)*(4000000/4000000.0)));
  1739  04E4  3005               	movlw	5
  1740  04E5  1283               	bcf	3,5	;RP0=0, select bank0
  1741  04E6  1303               	bcf	3,6	;RP1=0, select bank0
  1742  04E7  00B0               	movwf	??_lcd_busy
  1743  04E8                     u1587:
  1744  04E8  0BB0               	decfsz	??_lcd_busy,f
  1745  04E9  2CE8               	goto	u1587
  1746  04EA  2CEB               	nop2
  1747  04EB                     l1458:
  1748                           
  1749                           ;lcd.c: 35:  busy = RD7;
  1750  04EB  3000               	movlw	0
  1751  04EC  1283               	bcf	3,5	;RP0=0, select bank0
  1752  04ED  1303               	bcf	3,6	;RP1=0, select bank0
  1753  04EE  1B88               	btfsc	8,7	;volatile
  1754  04EF  3001               	movlw	1
  1755  04F0  00B1               	movwf	lcd_busy@busy
  1756  04F1                     l1460:
  1757                           
  1758                           ;lcd.c: 37:  RD3 = 0;
  1759  04F1  1188               	bcf	8,3	;volatile
  1760  04F2                     l1462:
  1761                           
  1762                           ;lcd.c: 38:  _delay((unsigned long)((20)*(4000000/4000000.0)));
  1763  04F2  3005               	movlw	5
  1764  04F3  1283               	bcf	3,5	;RP0=0, select bank0
  1765  04F4  1303               	bcf	3,6	;RP1=0, select bank0
  1766  04F5  00B0               	movwf	??_lcd_busy
  1767  04F6                     u1597:
  1768  04F6  0BB0               	decfsz	??_lcd_busy,f
  1769  04F7  2CF6               	goto	u1597
  1770  04F8  2CF9               	nop2
  1771  04F9                     l1464:
  1772                           
  1773                           ;lcd.c: 39:  RD3 = 1;
  1774  04F9  1283               	bcf	3,5	;RP0=0, select bank0
  1775  04FA  1303               	bcf	3,6	;RP1=0, select bank0
  1776  04FB  1588               	bsf	8,3	;volatile
  1777  04FC                     l1466:
  1778                           
  1779                           ;lcd.c: 40:  _delay((unsigned long)((20)*(4000000/4000000.0)));
  1780  04FC  3005               	movlw	5
  1781  04FD  1283               	bcf	3,5	;RP0=0, select bank0
  1782  04FE  1303               	bcf	3,6	;RP1=0, select bank0
  1783  04FF  00B0               	movwf	??_lcd_busy
  1784  0500                     u1607:
  1785  0500  0BB0               	decfsz	??_lcd_busy,f
  1786  0501  2D00               	goto	u1607
  1787  0502  2D03               	nop2
  1788  0503                     l1468:
  1789                           
  1790                           ;lcd.c: 41:  RD3 = 0;
  1791  0503  1283               	bcf	3,5	;RP0=0, select bank0
  1792  0504  1303               	bcf	3,6	;RP1=0, select bank0
  1793  0505  1188               	bcf	8,3	;volatile
  1794  0506                     l1470:
  1795                           
  1796                           ;lcd.c: 43:  return busy;
  1797  0506  0831               	movf	lcd_busy@busy,w
  1798  0507                     l33:
  1799  0507  0008               	return
  1800  0508                     __end_of_lcd_busy:
  1801                           
  1802                           	psect	text8
  1803  060C                     __ptext8:	
  1804 ;; *************** function _declarePort *****************
  1805 ;; Defined at:
  1806 ;;		line 53 in file "bai_1.c"
  1807 ;; Parameters:    Size  Location     Type
  1808 ;;		None
  1809 ;; Auto vars:     Size  Location     Type
  1810 ;;		None
  1811 ;; Return value:  Size  Location     Type
  1812 ;;                  1    wreg      void 
  1813 ;; Registers used:
  1814 ;;		wreg, status,2
  1815 ;; Tracked objects:
  1816 ;;		On entry : 0/0
  1817 ;;		On exit  : 0/0
  1818 ;;		Unchanged: 0/0
  1819 ;; Data sizes:     COMMON   BANK0   BANK1   BANK3   BANK2
  1820 ;;      Params:         0       0       0       0       0
  1821 ;;      Locals:         0       0       0       0       0
  1822 ;;      Temps:          0       0       0       0       0
  1823 ;;      Totals:         0       0       0       0       0
  1824 ;;Total ram usage:        0 bytes
  1825 ;; Hardware stack levels used: 1
  1826 ;; Hardware stack levels required when called: 7
  1827 ;; This function calls:
  1828 ;;		Nothing
  1829 ;; This function is called by:
  1830 ;;		_main
  1831 ;; This function uses a non-reentrant model
  1832 ;;
  1833                           
  1834                           
  1835                           ;psect for function _declarePort
  1836  060C                     _declarePort:
  1837  060C                     l1660:	
  1838                           ;incstack = 0
  1839                           ; Regs used in _declarePort: [wreg+status,2]
  1840                           
  1841                           
  1842                           ;bai_1.c: 54:     ANSEL = ANSELH = 0;
  1843  060C  1683               	bsf	3,5	;RP0=1, select bank3
  1844  060D  1703               	bsf	3,6	;RP1=1, select bank3
  1845  060E  0189               	clrf	9	;volatile
  1846  060F  0188               	clrf	8	;volatile
  1847  0610                     l1662:
  1848                           
  1849                           ;bai_1.c: 55:     TRISB = WPUB = 0x01;
  1850  0610  3001               	movlw	1
  1851  0611  1683               	bsf	3,5	;RP0=1, select bank1
  1852  0612  1303               	bcf	3,6	;RP1=0, select bank1
  1853  0613  0095               	movwf	21	;volatile
  1854  0614  0086               	movwf	6	;volatile
  1855  0615                     l1664:
  1856                           
  1857                           ;bai_1.c: 57:     nRBPU = 0;
  1858  0615  1381               	bcf	1,7	;volatile
  1859  0616                     l1666:
  1860                           
  1861                           ;bai_1.c: 58:     GIE = 1;
  1862  0616  178B               	bsf	11,7	;volatile
  1863  0617                     l1668:
  1864                           
  1865                           ;bai_1.c: 59:     INTF = 0;
  1866  0617  108B               	bcf	11,1	;volatile
  1867  0618                     l1670:
  1868                           
  1869                           ;bai_1.c: 60:     INTE = 1;
  1870  0618  160B               	bsf	11,4	;volatile
  1871  0619                     l1672:
  1872                           
  1873                           ;bai_1.c: 61:     INTEDG = 1;
  1874  0619  1701               	bsf	1,6	;volatile
  1875  061A                     l179:
  1876  061A  0008               	return
  1877  061B                     __end_of_declarePort:
  1878                           
  1879                           	psect	text9
  1880  0350                     __ptext9:	
  1881 ;; *************** function _myIsr *****************
  1882 ;; Defined at:
  1883 ;;		line 72 in file "bai_1.c"
  1884 ;; Parameters:    Size  Location     Type
  1885 ;;		None
  1886 ;; Auto vars:     Size  Location     Type
  1887 ;;		None
  1888 ;; Return value:  Size  Location     Type
  1889 ;;                  1    wreg      void 
  1890 ;; Registers used:
  1891 ;;		wreg, fsr0l, fsr0h, status,2, status,0, btemp+1, pclath, cstack
  1892 ;; Tracked objects:
  1893 ;;		On entry : 0/0
  1894 ;;		On exit  : 0/0
  1895 ;;		Unchanged: 0/0
  1896 ;; Data sizes:     COMMON   BANK0   BANK1   BANK3   BANK2
  1897 ;;      Params:         0       0       0       0       0
  1898 ;;      Locals:         0       0       0       0       0
  1899 ;;      Temps:          0       4       0       0       0
  1900 ;;      Totals:         0       4       0       0       0
  1901 ;;Total ram usage:        4 bytes
  1902 ;; Hardware stack levels used: 1
  1903 ;; Hardware stack levels required when called: 6
  1904 ;; This function calls:
  1905 ;;		_printf
  1906 ;;		i1_lcd_gotoxy
  1907 ;;		i1_lcd_init
  1908 ;;		i1_lcd_puts
  1909 ;; This function is called by:
  1910 ;;		Interrupt level 1
  1911 ;; This function uses a non-reentrant model
  1912 ;;
  1913                           
  1914                           
  1915                           ;psect for function _myIsr
  1916  0350                     _myIsr:
  1917  0350                     i1l1816:
  1918                           
  1919                           ;bai_1.c: 73:     INTF = 0;
  1920  0350  108B               	bcf	11,1	;volatile
  1921  0351                     i1l1818:
  1922                           
  1923                           ;bai_1.c: 74:     count = (count == 20) ? 0 : count + 1;
  1924  0351  3014               	movlw	20
  1925  0352  063F               	xorwf	_count,w
  1926  0353  0440               	iorwf	_count+1,w
  1927  0354  1903               	btfsc	3,2
  1928  0355  2B57               	goto	u148_21
  1929  0356  2B58               	goto	u148_20
  1930  0357                     u148_21:
  1931  0357  2B61               	goto	i1l1822
  1932  0358                     u148_20:
  1933  0358                     i1l1820:
  1934  0358  083F               	movf	_count,w
  1935  0359  3E01               	addlw	1
  1936  035A  00BF               	movwf	_count
  1937  035B  0840               	movf	_count+1,w
  1938  035C  1803               	skipnc
  1939  035D  3E01               	addlw	1
  1940  035E  3E00               	addlw	0
  1941  035F  00C0               	movwf	_count+1
  1942  0360  2B63               	goto	i1l1824
  1943  0361                     i1l1822:
  1944  0361  01BF               	clrf	_count
  1945  0362  01C0               	clrf	_count+1
  1946  0363                     i1l1824:
  1947                           
  1948                           ;bai_1.c: 75:     lcd_init();
  1949  0363  120A  118A  21A7  120A  118A  	fcall	i1_lcd_init
  1950  0368                     i1l1826:
  1951                           
  1952                           ;bai_1.c: 76:     lcd_gotoxy(0, 0);
  1953  0368  01F6               	clrf	i1lcd_gotoxy@row
  1954  0369  3000               	movlw	0
  1955  036A  120A  118A  2560  120A  118A  	fcall	i1_lcd_gotoxy
  1956  036F                     i1l1828:
  1957                           
  1958                           ;bai_1.c: 77:     lcd_puts(your_name);
  1959  036F  300B               	movlw	(low ((_your_name-__stringbase)| (0+32768)))& (0+255)
  1960  0370  120A  118A  25CC  120A  118A  	fcall	i1_lcd_puts
  1961  0375                     i1l1830:
  1962                           
  1963                           ;bai_1.c: 78:     lcd_gotoxy(7, 1);
  1964  0375  01F6               	clrf	i1lcd_gotoxy@row
  1965  0376  0AF6               	incf	i1lcd_gotoxy@row,f
  1966  0377  3007               	movlw	7
  1967  0378  120A  118A  2560  120A  118A  	fcall	i1_lcd_gotoxy
  1968  037D                     i1l1832:
  1969                           
  1970                           ;bai_1.c: 79:     printf("%d", count);
  1971  037D  1283               	bcf	3,5	;RP0=0, select bank0
  1972  037E  1303               	bcf	3,6	;RP1=0, select bank0
  1973  037F  0840               	movf	_count+1,w
  1974  0380  00A1               	movwf	?_printf+1
  1975  0381  083F               	movf	_count,w
  1976  0382  00A0               	movwf	?_printf
  1977  0383  301B               	movlw	(low ((STR_1-__stringbase)| (0+32768)))& (0+255)
  1978  0384  120A  118A  201D  120A  118A  	fcall	_printf
  1979  0389                     i1l196:
  1980  0389  1283               	bcf	3,5	;RP0=0, select bank0
  1981  038A  1303               	bcf	3,6	;RP1=0, select bank0
  1982  038B  082F               	movf	??_myIsr+3,w
  1983  038C  00FF               	movwf	btemp+1
  1984  038D  082E               	movf	??_myIsr+2,w
  1985  038E  008A               	movwf	10
  1986  038F  082D               	movf	??_myIsr+1,w
  1987  0390  0084               	movwf	4
  1988  0391  0E2C               	swapf	??_myIsr,w
  1989  0392  0083               	movwf	3
  1990  0393  0EFE               	swapf	btemp,f
  1991  0394  0E7E               	swapf	btemp,w
  1992  0395  0009               	retfie
  1993  0396                     __end_of_myIsr:
  1994                           
  1995                           	psect	intentry
  1996  0004                     __pintentry:	
  1997                           ;incstack = 0
  1998 ;; hardware stack exceeded
  1999                           ; Regs used in _myIsr: [wreg-fsr0h+status,2+status,0+btemp+1+pclath+cstack]
  2000                           
  2001  0004                     interrupt_function:
  2002  007E                     saved_w	set	btemp
  2003  0004  00FE               	movwf	btemp
  2004  0005  0E03               	swapf	3,w
  2005  0006  1283               	bcf	3,5	;RP0=0, select bank0
  2006  0007  1303               	bcf	3,6	;RP1=0, select bank0
  2007  0008  00AC               	movwf	??_myIsr
  2008  0009  0804               	movf	4,w
  2009  000A  00AD               	movwf	??_myIsr+1
  2010  000B  080A               	movf	10,w
  2011  000C  00AE               	movwf	??_myIsr+2
  2012  000D  087F               	movf	btemp+1,w
  2013  000E  00AF               	movwf	??_myIsr+3
  2014  000F  120A  118A  2B50   	ljmp	_myIsr
  2015                           
  2016                           	psect	text10
  2017  05CC                     __ptext10:	
  2018 ;; *************** function i1_lcd_puts *****************
  2019 ;; Defined at:
  2020 ;;		line 224 in file "lcd.c"
  2021 ;; Parameters:    Size  Location     Type
  2022 ;;  s               1    wreg     PTR const unsigned char 
  2023 ;;		 -> your_name(16), 
  2024 ;; Auto vars:     Size  Location     Type
  2025 ;;  s               1    0[BANK0 ] PTR const unsigned char 
  2026 ;;		 -> your_name(16), 
  2027 ;; Return value:  Size  Location     Type
  2028 ;;                  1    wreg      void 
  2029 ;; Registers used:
  2030 ;;		wreg, fsr0l, fsr0h, status,2, status,0, pclath, cstack
  2031 ;; Tracked objects:
  2032 ;;		On entry : 0/0
  2033 ;;		On exit  : 0/0
  2034 ;;		Unchanged: 0/0
  2035 ;; Data sizes:     COMMON   BANK0   BANK1   BANK3   BANK2
  2036 ;;      Params:         0       0       0       0       0
  2037 ;;      Locals:         0       1       0       0       0
  2038 ;;      Temps:          1       0       0       0       0
  2039 ;;      Totals:         1       1       0       0       0
  2040 ;;Total ram usage:        2 bytes
  2041 ;; Hardware stack levels used: 1
  2042 ;; Hardware stack levels required when called: 4
  2043 ;; This function calls:
  2044 ;;		i1_lcd_putc
  2045 ;; This function is called by:
  2046 ;;		_myIsr
  2047 ;; This function uses a non-reentrant model
  2048 ;;
  2049                           
  2050                           
  2051                           ;psect for function i1_lcd_puts
  2052  05CC                     i1_lcd_puts:
  2053                           
  2054                           ;incstack = 0
  2055 ;; hardware stack exceeded
  2056                           ; Regs used in i1_lcd_puts: [wreg-fsr0h+status,2+status,0+pclath+cstack]
  2057                           ;i1lcd_puts@s stored from wreg
  2058  05CC  1283               	bcf	3,5	;RP0=0, select bank0
  2059  05CD  1303               	bcf	3,6	;RP1=0, select bank0
  2060  05CE  00A0               	movwf	i1lcd_puts@s
  2061  05CF                     i1l1724:
  2062                           
  2063                           ;lcd.c: 224: void lcd_puts(const char* s);lcd.c: 225: {;lcd.c: 229:  while(*s)
  2064  05CF  2DE2               	goto	i1l1730
  2065  05D0                     i1l1726:
  2066                           
  2067                           ;lcd.c: 230:   {;lcd.c: 231:   lcd_putc(*s++);
  2068  05D0  0820               	movf	i1lcd_puts@s,w
  2069  05D1  0084               	movwf	4
  2070  05D2  120A  118A  2586  120A  118A  	fcall	stringdir
  2071  05D7  120A  118A  22A8  120A  118A  	fcall	i1_lcd_putc
  2072  05DC                     i1l1728:
  2073  05DC  3001               	movlw	1
  2074  05DD  00FD               	movwf	??i1_lcd_puts
  2075  05DE  087D               	movf	??i1_lcd_puts,w
  2076  05DF  1283               	bcf	3,5	;RP0=0, select bank0
  2077  05E0  1303               	bcf	3,6	;RP1=0, select bank0
  2078  05E1  07A0               	addwf	i1lcd_puts@s,f
  2079  05E2                     i1l1730:
  2080                           
  2081                           ;lcd.c: 229:  while(*s)
  2082  05E2  0820               	movf	i1lcd_puts@s,w
  2083  05E3  0084               	movwf	4
  2084  05E4  120A  118A  2586  120A  118A  	fcall	stringdir
  2085  05E9  3A00               	xorlw	0
  2086  05EA  1D03               	skipz
  2087  05EB  2DED               	goto	u136_21
  2088  05EC  2DEE               	goto	u136_20
  2089  05ED                     u136_21:
  2090  05ED  2DD0               	goto	i1l1726
  2091  05EE                     u136_20:
  2092  05EE                     i1l78:
  2093  05EE  0008               	return
  2094  05EF                     __end_ofi1_lcd_puts:
  2095                           
  2096                           	psect	text11
  2097  01A7                     __ptext11:	
  2098 ;; *************** function i1_lcd_init *****************
  2099 ;; Defined at:
  2100 ;;		line 241 in file "lcd.c"
  2101 ;; Parameters:    Size  Location     Type
  2102 ;;		None
  2103 ;; Auto vars:     Size  Location     Type
  2104 ;;  i               1    0        unsigned char 
  2105 ;; Return value:  Size  Location     Type
  2106 ;;                  1    wreg      void 
  2107 ;; Registers used:
  2108 ;;		wreg, status,2, status,0, pclath, cstack
  2109 ;; Tracked objects:
  2110 ;;		On entry : 0/0
  2111 ;;		On exit  : 0/0
  2112 ;;		Unchanged: 0/0
  2113 ;; Data sizes:     COMMON   BANK0   BANK1   BANK3   BANK2
  2114 ;;      Params:         0       0       0       0       0
  2115 ;;      Locals:         0       0       0       0       0
  2116 ;;      Temps:          2       0       0       0       0
  2117 ;;      Totals:         2       0       0       0       0
  2118 ;;Total ram usage:        2 bytes
  2119 ;; Hardware stack levels used: 1
  2120 ;; Hardware stack levels required when called: 2
  2121 ;; This function calls:
  2122 ;;		i1_lcd_busy
  2123 ;;		i1_lcd_put_byte
  2124 ;;		i1_lcd_put_nibble
  2125 ;; This function is called by:
  2126 ;;		_myIsr
  2127 ;; This function uses a non-reentrant model
  2128 ;;
  2129                           
  2130                           
  2131                           ;psect for function i1_lcd_init
  2132  01A7                     i1_lcd_init:
  2133  01A7                     i1l1732:	
  2134                           ;incstack = 0
  2135 ;; hardware stack exceeded
  2136                           ; Regs used in i1_lcd_init: [wreg+status,2+status,0+pclath+cstack]
  2137                           
  2138                           
  2139                           ;lcd.c: 244: unsigned char i;;lcd.c: 247:  TRISD3 = 0;
  2140  01A7  1683               	bsf	3,5	;RP0=1, select bank1
  2141  01A8  1303               	bcf	3,6	;RP1=0, select bank1
  2142  01A9  1188               	bcf	8,3	;volatile
  2143                           
  2144                           ;lcd.c: 248:  TRISD1 = 0;
  2145  01AA  1088               	bcf	8,1	;volatile
  2146                           
  2147                           ;lcd.c: 249:  TRISD2 = 0;
  2148  01AB  1108               	bcf	8,2	;volatile
  2149                           
  2150                           ;lcd.c: 250:  TRISD4 = 0;
  2151  01AC  1208               	bcf	8,4	;volatile
  2152                           
  2153                           ;lcd.c: 251:  TRISD5 = 0;
  2154  01AD  1288               	bcf	8,5	;volatile
  2155                           
  2156                           ;lcd.c: 252:  TRISD6 = 0;
  2157  01AE  1308               	bcf	8,6	;volatile
  2158                           
  2159                           ;lcd.c: 253:  TRISD7 = 0;
  2160  01AF  1388               	bcf	8,7	;volatile
  2161  01B0                     i1l1734:
  2162                           
  2163                           ;lcd.c: 255:  _delay((unsigned long)((15)*(4000000/4000.0)));
  2164  01B0  3014               	movlw	20
  2165  01B1  00F7               	movwf	??i1_lcd_init+1
  2166  01B2  3079               	movlw	121
  2167  01B3  00F6               	movwf	??i1_lcd_init
  2168  01B4                     u161_27:
  2169  01B4  0BF6               	decfsz	??i1_lcd_init,f
  2170  01B5  29B4               	goto	u161_27
  2171  01B6  0BF7               	decfsz	??i1_lcd_init+1,f
  2172  01B7  29B4               	goto	u161_27
  2173  01B8  29B9               	nop2
  2174  01B9                     i1l1736:
  2175                           
  2176                           ;lcd.c: 257:  RD1 = 0;
  2177  01B9  1283               	bcf	3,5	;RP0=0, select bank0
  2178  01BA  1303               	bcf	3,6	;RP1=0, select bank0
  2179  01BB  1088               	bcf	8,1	;volatile
  2180  01BC                     i1l1738:
  2181                           
  2182                           ;lcd.c: 258:  RD2 = 0;
  2183  01BC  1108               	bcf	8,2	;volatile
  2184  01BD                     i1l1740:
  2185                           
  2186                           ;lcd.c: 259:  RD3 = 0;
  2187  01BD  1188               	bcf	8,3	;volatile
  2188  01BE                     i1l1742:
  2189                           
  2190                           ;lcd.c: 261:  lcd_put_nibble(3);
  2191  01BE  3003               	movlw	3
  2192  01BF  120A  118A  2396  120A  118A  	fcall	i1_lcd_put_nibble
  2193  01C4                     i1l1744:
  2194                           
  2195                           ;lcd.c: 262:  _delay((unsigned long)((10)*(4000000/4000.0)));
  2196  01C4  300D               	movlw	13
  2197  01C5  00F7               	movwf	??i1_lcd_init+1
  2198  01C6  30FB               	movlw	251
  2199  01C7  00F6               	movwf	??i1_lcd_init
  2200  01C8                     u162_27:
  2201  01C8  0BF6               	decfsz	??i1_lcd_init,f
  2202  01C9  29C8               	goto	u162_27
  2203  01CA  0BF7               	decfsz	??i1_lcd_init+1,f
  2204  01CB  29C8               	goto	u162_27
  2205  01CC  29CD               	nop2
  2206                           
  2207                           ;lcd.c: 263:  lcd_put_nibble(3);
  2208  01CD  3003               	movlw	3
  2209  01CE  120A  118A  2396  120A  118A  	fcall	i1_lcd_put_nibble
  2210  01D3                     i1l1746:
  2211                           
  2212                           ;lcd.c: 264:  _delay((unsigned long)((10)*(4000000/4000.0)));
  2213  01D3  300D               	movlw	13
  2214  01D4  00F7               	movwf	??i1_lcd_init+1
  2215  01D5  30FB               	movlw	251
  2216  01D6  00F6               	movwf	??i1_lcd_init
  2217  01D7                     u163_27:
  2218  01D7  0BF6               	decfsz	??i1_lcd_init,f
  2219  01D8  29D7               	goto	u163_27
  2220  01D9  0BF7               	decfsz	??i1_lcd_init+1,f
  2221  01DA  29D7               	goto	u163_27
  2222  01DB  29DC               	nop2
  2223  01DC                     i1l1748:
  2224                           
  2225                           ;lcd.c: 265:  lcd_put_nibble(3);
  2226  01DC  3003               	movlw	3
  2227  01DD  120A  118A  2396  120A  118A  	fcall	i1_lcd_put_nibble
  2228                           
  2229                           ;lcd.c: 266:  _delay((unsigned long)((10)*(4000000/4000.0)));
  2230  01E2  300D               	movlw	13
  2231  01E3  00F7               	movwf	??i1_lcd_init+1
  2232  01E4  30FB               	movlw	251
  2233  01E5  00F6               	movwf	??i1_lcd_init
  2234  01E6                     u164_27:
  2235  01E6  0BF6               	decfsz	??i1_lcd_init,f
  2236  01E7  29E6               	goto	u164_27
  2237  01E8  0BF7               	decfsz	??i1_lcd_init+1,f
  2238  01E9  29E6               	goto	u164_27
  2239  01EA  29EB               	nop2
  2240  01EB                     i1l1750:
  2241                           
  2242                           ;lcd.c: 268:  lcd_put_nibble(2);
  2243  01EB  3002               	movlw	2
  2244  01EC  120A  118A  2396  120A  118A  	fcall	i1_lcd_put_nibble
  2245  01F1                     i1l1752:	
  2246                           ;lcd.c: 269:  while(lcd_busy());
  2247                           
  2248  01F1  120A  118A  2508  120A  118A  	fcall	i1_lcd_busy
  2249  01F6  3A00               	xorlw	0
  2250  01F7  1D03               	skipz
  2251  01F8  29FA               	goto	u137_21
  2252  01F9  29FB               	goto	u137_20
  2253  01FA                     u137_21:
  2254  01FA  29F1               	goto	i1l1752
  2255  01FB                     u137_20:
  2256  01FB                     i1l1754:
  2257                           
  2258                           ;lcd.c: 271:  lcd_put_byte(0,0b00101100 & 0b00111000);
  2259  01FB  3028               	movlw	40
  2260  01FC  00F6               	movwf	??i1_lcd_init
  2261  01FD  0876               	movf	??i1_lcd_init,w
  2262  01FE  00F3               	movwf	i1lcd_put_byte@b
  2263  01FF  3000               	movlw	0
  2264  0200  120A  118A  2497  120A  118A  	fcall	i1_lcd_put_byte
  2265  0205                     i1l1756:	
  2266                           ;lcd.c: 272:  while(lcd_busy());
  2267                           
  2268  0205  120A  118A  2508  120A  118A  	fcall	i1_lcd_busy
  2269  020A  3A00               	xorlw	0
  2270  020B  1D03               	skipz
  2271  020C  2A0E               	goto	u138_21
  2272  020D  2A0F               	goto	u138_20
  2273  020E                     u138_21:
  2274  020E  2A05               	goto	i1l1756
  2275  020F                     u138_20:
  2276  020F                     i1l1758:
  2277                           
  2278                           ;lcd.c: 274:  lcd_put_byte(0,0b00001111 & 0b00001101 & 0b00001110);
  2279  020F  300C               	movlw	12
  2280  0210  00F6               	movwf	??i1_lcd_init
  2281  0211  0876               	movf	??i1_lcd_init,w
  2282  0212  00F3               	movwf	i1lcd_put_byte@b
  2283  0213  3000               	movlw	0
  2284  0214  120A  118A  2497  120A  118A  	fcall	i1_lcd_put_byte
  2285  0219                     i1l1760:	
  2286                           ;lcd.c: 275:  while(lcd_busy());
  2287                           
  2288  0219  120A  118A  2508  120A  118A  	fcall	i1_lcd_busy
  2289  021E  3A00               	xorlw	0
  2290  021F  1D03               	skipz
  2291  0220  2A22               	goto	u139_21
  2292  0221  2A23               	goto	u139_20
  2293  0222                     u139_21:
  2294  0222  2A19               	goto	i1l1760
  2295  0223                     u139_20:
  2296  0223                     i1l1762:
  2297                           
  2298                           ;lcd.c: 277:  lcd_put_byte(0,0x01);
  2299  0223  01F3               	clrf	i1lcd_put_byte@b
  2300  0224  0AF3               	incf	i1lcd_put_byte@b,f
  2301  0225  3000               	movlw	0
  2302  0226  120A  118A  2497  120A  118A  	fcall	i1_lcd_put_byte
  2303  022B                     i1l1764:	
  2304                           ;lcd.c: 278:  while(lcd_busy());
  2305                           
  2306  022B  120A  118A  2508  120A  118A  	fcall	i1_lcd_busy
  2307  0230  3A00               	xorlw	0
  2308  0231  1D03               	skipz
  2309  0232  2A34               	goto	u140_21
  2310  0233  2A35               	goto	u140_20
  2311  0234                     u140_21:
  2312  0234  2A2B               	goto	i1l1764
  2313  0235                     u140_20:
  2314  0235                     i1l1766:
  2315                           
  2316                           ;lcd.c: 280:  lcd_put_byte(0,0b00000110);
  2317  0235  3006               	movlw	6
  2318  0236  00F6               	movwf	??i1_lcd_init
  2319  0237  0876               	movf	??i1_lcd_init,w
  2320  0238  00F3               	movwf	i1lcd_put_byte@b
  2321  0239  3000               	movlw	0
  2322  023A  120A  118A  2497  120A  118A  	fcall	i1_lcd_put_byte
  2323  023F                     i1l1768:	
  2324                           ;lcd.c: 281:  while(lcd_busy());
  2325                           
  2326  023F  120A  118A  2508  120A  118A  	fcall	i1_lcd_busy
  2327  0244  3A00               	xorlw	0
  2328  0245  1D03               	skipz
  2329  0246  2A48               	goto	u141_21
  2330  0247  2A49               	goto	u141_20
  2331  0248                     u141_21:
  2332  0248  2A3F               	goto	i1l1768
  2333  0249                     u141_20:
  2334  0249                     i1l96:
  2335  0249  0008               	return
  2336  024A                     __end_ofi1_lcd_init:
  2337                           
  2338                           	psect	text12
  2339  001D                     __ptext12:	
  2340 ;; *************** function _printf *****************
  2341 ;; Defined at:
  2342 ;;		line 477 in file "C:\Program Files\Microchip\xc8\v2.32\pic\sources\c90\common\doprnt.c"
  2343 ;; Parameters:    Size  Location     Type
  2344 ;;  f               1    wreg     PTR const unsigned char 
  2345 ;;		 -> STR_1(3), 
  2346 ;; Auto vars:     Size  Location     Type
  2347 ;;  f               1    8[BANK0 ] PTR const unsigned char 
  2348 ;;		 -> STR_1(3), 
  2349 ;;  tmpval          4    0        struct .
  2350 ;;  val             2    9[BANK0 ] unsigned int 
  2351 ;;  cp              2    0        PTR const unsigned char 
  2352 ;;  len             2    0        unsigned int 
  2353 ;;  c               1   11[BANK0 ] unsigned char 
  2354 ;;  prec            1    7[BANK0 ] char 
  2355 ;;  flag            1    6[BANK0 ] unsigned char 
  2356 ;;  ap              1    5[BANK0 ] PTR void [1]
  2357 ;;		 -> ?_printf(2), 
  2358 ;; Return value:  Size  Location     Type
  2359 ;;                  2    0[BANK0 ] int 
  2360 ;; Registers used:
  2361 ;;		wreg, fsr0l, fsr0h, status,2, status,0, btemp+1, pclath, cstack
  2362 ;; Tracked objects:
  2363 ;;		On entry : 0/0
  2364 ;;		On exit  : 0/0
  2365 ;;		Unchanged: 0/0
  2366 ;; Data sizes:     COMMON   BANK0   BANK1   BANK3   BANK2
  2367 ;;      Params:         0       2       0       0       0
  2368 ;;      Locals:         0       7       0       0       0
  2369 ;;      Temps:          0       3       0       0       0
  2370 ;;      Totals:         0      12       0       0       0
  2371 ;;Total ram usage:       12 bytes
  2372 ;; Hardware stack levels used: 1
  2373 ;; Hardware stack levels required when called: 5
  2374 ;; This function calls:
  2375 ;;		___lwdiv
  2376 ;;		___lwmod
  2377 ;;		_putch
  2378 ;; This function is called by:
  2379 ;;		_myIsr
  2380 ;; This function uses a non-reentrant model
  2381 ;;
  2382                           
  2383                           
  2384                           ;psect for function _printf
  2385  001D                     _printf:
  2386                           
  2387                           ;incstack = 0
  2388 ;; hardware stack exceeded
  2389                           ; Regs used in _printf: [wreg-fsr0h+status,2+status,0+btemp+1+pclath+cstack]
  2390                           ;printf@f stored from wreg
  2391  001D  1283               	bcf	3,5	;RP0=0, select bank0
  2392  001E  1303               	bcf	3,6	;RP1=0, select bank0
  2393  001F  00A8               	movwf	printf@f
  2394  0020                     i1l1674:
  2395                           
  2396                           ;C:\Program Files\Microchip\xc8\v2.32\pic\sources\c90\common\doprnt.c: 477: printf(const
      +                           char * f, ...);C:\Program Files\Microchip\xc8\v2.32\pic\sources\c90\common\doprnt.c: 47
      +                          8: {;C:\Program Files\Microchip\xc8\v2.32\pic\sources\c90\common\doprnt.c: 479:  va_list
      +                           ap;;C:\Program Files\Microchip\xc8\v2.32\pic\sources\c90\common\doprnt.c: 512:  char c;
      +                          ;C:\Program Files\Microchip\xc8\v2.32\pic\sources\c90\common\doprnt.c: 521:  signed char
      +                           prec;;C:\Program Files\Microchip\xc8\v2.32\pic\sources\c90\common\doprnt.c: 525:  unsig
      +                          ned char flag;
  2397  0020  3020               	movlw	(low (?_printf| 0))& (0+255)
  2398  0021  00A2               	movwf	??_printf
  2399  0022  0822               	movf	??_printf,w
  2400  0023  00A5               	movwf	printf@ap
  2401                           
  2402                           ;C:\Program Files\Microchip\xc8\v2.32\pic\sources\c90\common\doprnt.c: 553:  while((c = 
      +                          *f++)) {
  2403  0024  28E3               	goto	i1l1718
  2404  0025                     i1l1676:
  2405                           
  2406                           ;C:\Program Files\Microchip\xc8\v2.32\pic\sources\c90\common\doprnt.c: 555:   if(c != '%
      +                          ')
  2407  0025  3025               	movlw	37
  2408  0026  062B               	xorwf	printf@c,w
  2409  0027  1903               	btfsc	3,2
  2410  0028  282A               	goto	u129_21
  2411  0029  282B               	goto	u129_20
  2412  002A                     u129_21:
  2413  002A  2832               	goto	i1l1680
  2414  002B                     u129_20:
  2415  002B                     i1l1678:
  2416                           
  2417                           ;C:\Program Files\Microchip\xc8\v2.32\pic\sources\c90\common\doprnt.c: 557:   {;C:\Progr
      +                          am Files\Microchip\xc8\v2.32\pic\sources\c90\common\doprnt.c: 558:    (putch(c) );
  2418  002B  082B               	movf	printf@c,w
  2419  002C  120A  118A  261B  120A  118A  	fcall	_putch
  2420                           
  2421                           ;C:\Program Files\Microchip\xc8\v2.32\pic\sources\c90\common\doprnt.c: 559:    continue;
  2422  0031  28E3               	goto	i1l1718
  2423  0032                     i1l1680:
  2424                           
  2425                           ;C:\Program Files\Microchip\xc8\v2.32\pic\sources\c90\common\doprnt.c: 565:   flag = 0;
  2426  0032  01A6               	clrf	printf@flag
  2427  0033                     i1l1684:	
  2428                           ;C:\Program Files\Microchip\xc8\v2.32\pic\sources\c90\common\doprnt.c: 661:   switch(c =
      +                           *f++) {
  2429                           
  2430  0033  3001               	movlw	1
  2431  0034  07A8               	addwf	printf@f,f
  2432  0035  30FF               	movlw	-1
  2433  0036  0728               	addwf	printf@f,w
  2434  0037  0084               	movwf	4
  2435  0038  120A  118A  2586  120A  118A  	fcall	stringdir
  2436  003D  00AB               	movwf	printf@c
  2437  003E  00A2               	movwf	??_printf
  2438  003F  01A3               	clrf	??_printf+1
  2439                           
  2440                           ; Switch on 2 bytes has been partitioned into a top level switch of size 1, and 1 sub-sw
      +                          itches
  2441                           ; Switch size 1, requested type "simple"
  2442                           ; Number of cases is 1, Range of values is 0 to 0
  2443                           ; switch strategies available:
  2444                           ; Name         Instructions Cycles
  2445                           ; simple_byte            4     3 (average)
  2446                           ; direct_byte           11     8 (fixed)
  2447                           ; jumptable            260     6 (fixed)
  2448                           ;	Chosen strategy is simple_byte
  2449  0040  0823               	movf	??_printf+1,w
  2450  0041  3A00               	xorlw	0	; case 0
  2451  0042  1903               	skipnz
  2452  0043  2845               	goto	i1l1906
  2453  0044  28E3               	goto	i1l1718
  2454  0045                     i1l1906:
  2455                           
  2456                           ; Switch size 1, requested type "simple"
  2457                           ; Number of cases is 3, Range of values is 0 to 105
  2458                           ; switch strategies available:
  2459                           ; Name         Instructions Cycles
  2460                           ; simple_byte           10     6 (average)
  2461                           ; jumptable            260     6 (fixed)
  2462                           ;	Chosen strategy is simple_byte
  2463  0045  0822               	movf	??_printf,w
  2464  0046  3A00               	xorlw	0	; case 0
  2465  0047  1903               	skipnz
  2466  0048  28F7               	goto	i1l308
  2467  0049  3A64               	xorlw	100	; case 100
  2468  004A  1903               	skipnz
  2469  004B  2850               	goto	i1l1686
  2470  004C  3A0D               	xorlw	13	; case 105
  2471  004D  1903               	skipnz
  2472  004E  2850               	goto	i1l1686
  2473  004F  28E3               	goto	i1l1718
  2474  0050                     i1l1686:
  2475                           
  2476                           ;C:\Program Files\Microchip\xc8\v2.32\pic\sources\c90\common\doprnt.c: 1279:   {;C:\Prog
      +                          ram Files\Microchip\xc8\v2.32\pic\sources\c90\common\doprnt.c: 1285:     val = (unsigned
      +                           int)(*(int *)__va_arg((*(int **)ap), (int)0));
  2477  0050  0825               	movf	printf@ap,w
  2478  0051  0084               	movwf	4
  2479  0052  1383               	bcf	3,7	;select IRP bank0
  2480  0053  0800               	movf	0,w
  2481  0054  00A9               	movwf	printf@val
  2482  0055  0A84               	incf	4,f
  2483  0056  0800               	movf	0,w
  2484  0057  00AA               	movwf	printf@val+1
  2485  0058                     i1l1688:
  2486  0058  3002               	movlw	2
  2487  0059  00A2               	movwf	??_printf
  2488  005A  0822               	movf	??_printf,w
  2489  005B  07A5               	addwf	printf@ap,f
  2490  005C                     i1l1690:
  2491                           
  2492                           ;C:\Program Files\Microchip\xc8\v2.32\pic\sources\c90\common\doprnt.c: 1287:    if((int)
      +                          val < 0) {
  2493  005C  1FAA               	btfss	printf@val+1,7
  2494  005D  285F               	goto	u130_21
  2495  005E  2860               	goto	u130_20
  2496  005F                     u130_21:
  2497  005F  2869               	goto	i1l1696
  2498  0060                     u130_20:
  2499  0060                     i1l1692:
  2500                           
  2501                           ;C:\Program Files\Microchip\xc8\v2.32\pic\sources\c90\common\doprnt.c: 1288:     flag |=
      +                           0x03;
  2502  0060  3003               	movlw	3
  2503  0061  00A2               	movwf	??_printf
  2504  0062  0822               	movf	??_printf,w
  2505  0063  04A6               	iorwf	printf@flag,f
  2506  0064                     i1l1694:
  2507                           
  2508                           ;C:\Program Files\Microchip\xc8\v2.32\pic\sources\c90\common\doprnt.c: 1289:     val = -
      +                          val;
  2509  0064  09A9               	comf	printf@val,f
  2510  0065  09AA               	comf	printf@val+1,f
  2511  0066  0AA9               	incf	printf@val,f
  2512  0067  1903               	skipnz
  2513  0068  0AAA               	incf	printf@val+1,f
  2514  0069                     i1l1696:
  2515                           
  2516                           ;C:\Program Files\Microchip\xc8\v2.32\pic\sources\c90\common\doprnt.c: 1292:   };C:\Prog
      +                          ram Files\Microchip\xc8\v2.32\pic\sources\c90\common\doprnt.c: 1331:    for(c = 1 ; c !=
      +                           sizeof dpowers/sizeof dpowers[0] ; c++)
  2517  0069  01AB               	clrf	printf@c
  2518  006A  0AAB               	incf	printf@c,f
  2519  006B                     i1l1702:
  2520                           
  2521                           ;C:\Program Files\Microchip\xc8\v2.32\pic\sources\c90\common\doprnt.c: 1332:     if(val 
      +                          < dpowers[c])
  2522  006B  082B               	movf	printf@c,w
  2523  006C  00A2               	movwf	??_printf
  2524  006D  0722               	addwf	??_printf,w
  2525  006E  3E01               	addlw	low ((_dpowers-__stringbase)| (0+32768))
  2526  006F  0084               	movwf	4
  2527  0070  120A  118A  2586  120A  118A  	fcall	stringdir
  2528  0075  00A3               	movwf	??_printf+1
  2529  0076  120A  118A  2586  120A  118A  	fcall	stringdir
  2530  007B  00A4               	movwf	??_printf+2
  2531  007C  0824               	movf	??_printf+2,w
  2532  007D  022A               	subwf	printf@val+1,w
  2533  007E  1D03               	skipz
  2534  007F  2882               	goto	u131_25
  2535  0080  0823               	movf	??_printf+1,w
  2536  0081  0229               	subwf	printf@val,w
  2537  0082                     u131_25:
  2538  0082  1803               	skipnc
  2539  0083  2885               	goto	u131_21
  2540  0084  2886               	goto	u131_20
  2541  0085                     u131_21:
  2542  0085  2887               	goto	i1l1706
  2543  0086                     u131_20:
  2544  0086  2891               	goto	i1l1708
  2545  0087                     i1l1706:
  2546  0087  3001               	movlw	1
  2547  0088  00A2               	movwf	??_printf
  2548  0089  0822               	movf	??_printf,w
  2549  008A  07AB               	addwf	printf@c,f
  2550  008B  3005               	movlw	5
  2551  008C  062B               	xorwf	printf@c,w
  2552  008D  1D03               	btfss	3,2
  2553  008E  2890               	goto	u132_21
  2554  008F  2891               	goto	u132_20
  2555  0090                     u132_21:
  2556  0090  286B               	goto	i1l1702
  2557  0091                     u132_20:
  2558  0091                     i1l1708:
  2559                           
  2560                           ;C:\Program Files\Microchip\xc8\v2.32\pic\sources\c90\common\doprnt.c: 1448:   {;C:\Prog
      +                          ram Files\Microchip\xc8\v2.32\pic\sources\c90\common\doprnt.c: 1464:    if(flag & 0x03)
  2561  0091  0826               	movf	printf@flag,w
  2562  0092  3903               	andlw	3
  2563  0093  1903               	btfsc	3,2
  2564  0094  2896               	goto	u133_21
  2565  0095  2897               	goto	u133_20
  2566  0096                     u133_21:
  2567  0096  289D               	goto	i1l1712
  2568  0097                     u133_20:
  2569  0097                     i1l1710:
  2570                           
  2571                           ;C:\Program Files\Microchip\xc8\v2.32\pic\sources\c90\common\doprnt.c: 1465:     (putch(
      +                          '-') );
  2572  0097  302D               	movlw	45
  2573  0098  120A  118A  261B  120A  118A  	fcall	_putch
  2574  009D                     i1l1712:
  2575                           
  2576                           ;C:\Program Files\Microchip\xc8\v2.32\pic\sources\c90\common\doprnt.c: 1495:   };C:\Prog
      +                          ram Files\Microchip\xc8\v2.32\pic\sources\c90\common\doprnt.c: 1498:   prec = c;
  2577  009D  1283               	bcf	3,5	;RP0=0, select bank0
  2578  009E  1303               	bcf	3,6	;RP1=0, select bank0
  2579  009F  082B               	movf	printf@c,w
  2580  00A0  00A2               	movwf	??_printf
  2581  00A1  0822               	movf	??_printf,w
  2582  00A2  00A7               	movwf	printf@prec
  2583                           
  2584                           ;C:\Program Files\Microchip\xc8\v2.32\pic\sources\c90\common\doprnt.c: 1500:   while(pre
      +                          c--) {
  2585  00A3  28D8               	goto	i1l1716
  2586  00A4                     i1l1714:
  2587                           
  2588                           ;C:\Program Files\Microchip\xc8\v2.32\pic\sources\c90\common\doprnt.c: 1504:    {;C:\Pro
      +                          gram Files\Microchip\xc8\v2.32\pic\sources\c90\common\doprnt.c: 1515:     c = (val / dpo
      +                          wers[(unsigned char)prec]) % 10 + '0';
  2589  00A4  300A               	movlw	10
  2590  00A5  00F8               	movwf	___lwmod@divisor
  2591  00A6  3000               	movlw	0
  2592  00A7  00F9               	movwf	___lwmod@divisor+1
  2593  00A8  0827               	movf	printf@prec,w
  2594  00A9  00A2               	movwf	??_printf
  2595  00AA  0722               	addwf	??_printf,w
  2596  00AB  3E01               	addlw	low ((_dpowers-__stringbase)| (0+32768))
  2597  00AC  0084               	movwf	4
  2598  00AD  120A  118A  2586  120A  118A  	fcall	stringdir
  2599  00B2  00F0               	movwf	___lwdiv@divisor
  2600  00B3  120A  118A  2586  120A  118A  	fcall	stringdir
  2601  00B8  00F1               	movwf	___lwdiv@divisor+1
  2602  00B9  082A               	movf	printf@val+1,w
  2603  00BA  00F3               	movwf	___lwdiv@dividend+1
  2604  00BB  0829               	movf	printf@val,w
  2605  00BC  00F2               	movwf	___lwdiv@dividend
  2606  00BD  120A  118A  23DA  120A  118A  	fcall	___lwdiv
  2607  00C2  0871               	movf	?___lwdiv+1,w
  2608  00C3  00FB               	movwf	___lwmod@dividend+1
  2609  00C4  0870               	movf	?___lwdiv,w
  2610  00C5  00FA               	movwf	___lwmod@dividend
  2611  00C6  120A  118A  245D  120A  118A  	fcall	___lwmod
  2612  00CB  0878               	movf	?___lwmod,w
  2613  00CC  3E30               	addlw	48
  2614  00CD  1283               	bcf	3,5	;RP0=0, select bank0
  2615  00CE  1303               	bcf	3,6	;RP1=0, select bank0
  2616  00CF  00A3               	movwf	??_printf+1
  2617  00D0  0823               	movf	??_printf+1,w
  2618  00D1  00AB               	movwf	printf@c
  2619                           
  2620                           ;C:\Program Files\Microchip\xc8\v2.32\pic\sources\c90\common\doprnt.c: 1549:    };C:\Pro
      +                          gram Files\Microchip\xc8\v2.32\pic\sources\c90\common\doprnt.c: 1550:    (putch(c) );
  2621  00D2  082B               	movf	printf@c,w
  2622  00D3  120A  118A  261B  120A  118A  	fcall	_putch
  2623  00D8                     i1l1716:
  2624                           
  2625                           ;C:\Program Files\Microchip\xc8\v2.32\pic\sources\c90\common\doprnt.c: 1500:   while(pre
      +                          c--) {
  2626  00D8  30FF               	movlw	255
  2627  00D9  1283               	bcf	3,5	;RP0=0, select bank0
  2628  00DA  1303               	bcf	3,6	;RP1=0, select bank0
  2629  00DB  00A2               	movwf	??_printf
  2630  00DC  0822               	movf	??_printf,w
  2631  00DD  07A7               	addwf	printf@prec,f
  2632  00DE  0A27               	incf	printf@prec,w
  2633  00DF  1D03               	btfss	3,2
  2634  00E0  28E2               	goto	u134_21
  2635  00E1  28E3               	goto	u134_20
  2636  00E2                     u134_21:
  2637  00E2  28A4               	goto	i1l1714
  2638  00E3                     u134_20:
  2639  00E3                     i1l1718:
  2640                           
  2641                           ;C:\Program Files\Microchip\xc8\v2.32\pic\sources\c90\common\doprnt.c: 553:  while((c = 
      +                          *f++)) {
  2642  00E3  3001               	movlw	1
  2643  00E4  1283               	bcf	3,5	;RP0=0, select bank0
  2644  00E5  1303               	bcf	3,6	;RP1=0, select bank0
  2645  00E6  07A8               	addwf	printf@f,f
  2646  00E7  30FF               	movlw	-1
  2647  00E8  0728               	addwf	printf@f,w
  2648  00E9  0084               	movwf	4
  2649  00EA  120A  118A  2586  120A  118A  	fcall	stringdir
  2650  00EF  00A2               	movwf	??_printf
  2651  00F0  0822               	movf	??_printf,w
  2652  00F1  00AB               	movwf	printf@c
  2653  00F2  082B               	movf	printf@c,w
  2654  00F3  1D03               	btfss	3,2
  2655  00F4  28F6               	goto	u135_21
  2656  00F5  28F7               	goto	u135_20
  2657  00F6                     u135_21:
  2658  00F6  2825               	goto	i1l1676
  2659  00F7                     u135_20:
  2660  00F7                     i1l308:
  2661  00F7  0008               	return
  2662  00F8                     __end_of_printf:
  2663                           
  2664                           	psect	text13
  2665  061B                     __ptext13:	
  2666 ;; *************** function _putch *****************
  2667 ;; Defined at:
  2668 ;;		line 368 in file "lcd.c"
  2669 ;; Parameters:    Size  Location     Type
  2670 ;;  c               1    wreg     unsigned char 
  2671 ;; Auto vars:     Size  Location     Type
  2672 ;;  c               1   13[COMMON] unsigned char 
  2673 ;; Return value:  Size  Location     Type
  2674 ;;                  1    wreg      void 
  2675 ;; Registers used:
  2676 ;;		wreg, fsr0l, fsr0h, status,2, status,0, pclath, cstack
  2677 ;; Tracked objects:
  2678 ;;		On entry : 0/0
  2679 ;;		On exit  : 0/0
  2680 ;;		Unchanged: 0/0
  2681 ;; Data sizes:     COMMON   BANK0   BANK1   BANK3   BANK2
  2682 ;;      Params:         0       0       0       0       0
  2683 ;;      Locals:         1       0       0       0       0
  2684 ;;      Temps:          0       0       0       0       0
  2685 ;;      Totals:         1       0       0       0       0
  2686 ;;Total ram usage:        1 bytes
  2687 ;; Hardware stack levels used: 1
  2688 ;; Hardware stack levels required when called: 4
  2689 ;; This function calls:
  2690 ;;		i1_lcd_putc
  2691 ;; This function is called by:
  2692 ;;		_printf
  2693 ;; This function uses a non-reentrant model
  2694 ;;
  2695                           
  2696                           
  2697                           ;psect for function _putch
  2698  061B                     _putch:
  2699                           
  2700                           ;incstack = 0
  2701 ;; hardware stack exceeded
  2702                           ; Regs used in _putch: [wreg-fsr0h+status,2+status,0+pclath+cstack]
  2703                           ;putch@c stored from wreg
  2704  061B  00FD               	movwf	putch@c
  2705  061C                     i1l1560:
  2706                           
  2707                           ;lcd.c: 368: void putch(char c);lcd.c: 369: {;lcd.c: 370:     lcd_putc(c);
  2708  061C  087D               	movf	putch@c,w
  2709  061D  120A  118A  22A8  120A  118A  	fcall	i1_lcd_putc
  2710  0622                     i1l123:
  2711  0622  0008               	return
  2712  0623                     __end_of_putch:
  2713                           
  2714                           	psect	text14
  2715  02A8                     __ptext14:	
  2716 ;; *************** function i1_lcd_putc *****************
  2717 ;; Defined at:
  2718 ;;		line 190 in file "lcd.c"
  2719 ;; Parameters:    Size  Location     Type
  2720 ;;  c               1    wreg     unsigned char 
  2721 ;; Auto vars:     Size  Location     Type
  2722 ;;  c               1   12[COMMON] unsigned char 
  2723 ;; Return value:  Size  Location     Type
  2724 ;;                  1    wreg      void 
  2725 ;; Registers used:
  2726 ;;		wreg, fsr0l, fsr0h, status,2, status,0, pclath, cstack
  2727 ;; Tracked objects:
  2728 ;;		On entry : 0/0
  2729 ;;		On exit  : 0/0
  2730 ;;		Unchanged: 0/0
  2731 ;; Data sizes:     COMMON   BANK0   BANK1   BANK3   BANK2
  2732 ;;      Params:         0       0       0       0       0
  2733 ;;      Locals:         1       0       0       0       0
  2734 ;;      Temps:          2       0       0       0       0
  2735 ;;      Totals:         3       0       0       0       0
  2736 ;;Total ram usage:        3 bytes
  2737 ;; Hardware stack levels used: 1
  2738 ;; Hardware stack levels required when called: 3
  2739 ;; This function calls:
  2740 ;;		i1_lcd_busy
  2741 ;;		i1_lcd_gotoxy
  2742 ;;		i1_lcd_put_byte
  2743 ;; This function is called by:
  2744 ;;		_putch
  2745 ;;		i1_lcd_puts
  2746 ;; This function uses a non-reentrant model
  2747 ;;
  2748                           
  2749                           
  2750                           ;psect for function i1_lcd_putc
  2751  02A8                     i1_lcd_putc:
  2752                           
  2753                           ;incstack = 0
  2754 ;; hardware stack exceeded
  2755                           ; Regs used in i1_lcd_putc: [wreg-fsr0h+status,2+status,0+pclath+cstack]
  2756                           ;i1lcd_putc@c stored from wreg
  2757  02A8  00FC               	movwf	i1lcd_putc@c
  2758  02A9                     i1l1514:
  2759                           
  2760                           ;lcd.c: 190: void lcd_putc(char c);lcd.c: 191: {;lcd.c: 195:  switch(c)
  2761  02A9  2AF0               	goto	i1l1530
  2762  02AA                     i1l1516:
  2763                           
  2764                           ;lcd.c: 198:    lcd_put_byte(0,1);
  2765  02AA  01F3               	clrf	i1lcd_put_byte@b
  2766  02AB  0AF3               	incf	i1lcd_put_byte@b,f
  2767  02AC  3000               	movlw	0
  2768  02AD  120A  118A  2497  120A  118A  	fcall	i1_lcd_put_byte
  2769  02B2                     i1l1518:	
  2770                           ;lcd.c: 199:    while(lcd_busy());
  2771                           
  2772  02B2  120A  118A  2508  120A  118A  	fcall	i1_lcd_busy
  2773  02B7  3A00               	xorlw	0
  2774  02B8  1D03               	skipz
  2775  02B9  2ABB               	goto	u104_21
  2776  02BA  2ABC               	goto	u104_20
  2777  02BB                     u104_21:
  2778  02BB  2AB2               	goto	i1l1518
  2779  02BC                     u104_20:
  2780  02BC  2B03               	goto	i1l72
  2781  02BD                     i1l1520:
  2782                           
  2783                           ;lcd.c: 202:    lcd_gotoxy(0,1);
  2784  02BD  01F6               	clrf	i1lcd_gotoxy@row
  2785  02BE  0AF6               	incf	i1lcd_gotoxy@row,f
  2786  02BF  3000               	movlw	0
  2787  02C0  120A  118A  2560  120A  118A  	fcall	i1_lcd_gotoxy
  2788                           
  2789                           ;lcd.c: 203:    break;
  2790  02C5  2B03               	goto	i1l72
  2791  02C6                     i1l1522:
  2792                           
  2793                           ;lcd.c: 205:    lcd_put_byte(0,0x10);
  2794  02C6  3010               	movlw	16
  2795  02C7  00FA               	movwf	??i1_lcd_putc
  2796  02C8  087A               	movf	??i1_lcd_putc,w
  2797  02C9  00F3               	movwf	i1lcd_put_byte@b
  2798  02CA  3000               	movlw	0
  2799  02CB  120A  118A  2497  120A  118A  	fcall	i1_lcd_put_byte
  2800  02D0                     i1l1524:	
  2801                           ;lcd.c: 206:    while(lcd_busy());
  2802                           
  2803  02D0  120A  118A  2508  120A  118A  	fcall	i1_lcd_busy
  2804  02D5  3A00               	xorlw	0
  2805  02D6  1D03               	skipz
  2806  02D7  2AD9               	goto	u105_21
  2807  02D8  2ADA               	goto	u105_20
  2808  02D9                     u105_21:
  2809  02D9  2AD0               	goto	i1l1524
  2810  02DA                     u105_20:
  2811  02DA  2B03               	goto	i1l72
  2812  02DB                     i1l1526:
  2813                           
  2814                           ;lcd.c: 210:     {;lcd.c: 211:     lcd_put_byte(1,c);
  2815  02DB  087C               	movf	i1lcd_putc@c,w
  2816  02DC  00FA               	movwf	??i1_lcd_putc
  2817  02DD  087A               	movf	??i1_lcd_putc,w
  2818  02DE  00F3               	movwf	i1lcd_put_byte@b
  2819  02DF  3001               	movlw	1
  2820  02E0  120A  118A  2497  120A  118A  	fcall	i1_lcd_put_byte
  2821  02E5                     i1l1528:	
  2822                           ;lcd.c: 212:     while(lcd_busy());
  2823                           
  2824  02E5  120A  118A  2508  120A  118A  	fcall	i1_lcd_busy
  2825  02EA  3A00               	xorlw	0
  2826  02EB  1D03               	skipz
  2827  02EC  2AEE               	goto	u106_21
  2828  02ED  2AEF               	goto	u106_20
  2829  02EE                     u106_21:
  2830  02EE  2AE5               	goto	i1l1528
  2831  02EF                     u106_20:
  2832  02EF  2B03               	goto	i1l72
  2833  02F0                     i1l1530:
  2834  02F0  087C               	movf	i1lcd_putc@c,w
  2835  02F1  00FA               	movwf	??i1_lcd_putc
  2836  02F2  01FB               	clrf	??i1_lcd_putc+1
  2837                           
  2838                           ; Switch on 2 bytes has been partitioned into a top level switch of size 1, and 1 sub-sw
      +                          itches
  2839                           ; Switch size 1, requested type "simple"
  2840                           ; Number of cases is 1, Range of values is 0 to 0
  2841                           ; switch strategies available:
  2842                           ; Name         Instructions Cycles
  2843                           ; simple_byte            4     3 (average)
  2844                           ; direct_byte           11     8 (fixed)
  2845                           ; jumptable            260     6 (fixed)
  2846                           ;	Chosen strategy is simple_byte
  2847  02F3  087B               	movf	??i1_lcd_putc+1,w
  2848  02F4  3A00               	xorlw	0	; case 0
  2849  02F5  1903               	skipnz
  2850  02F6  2AF8               	goto	i1l1908
  2851  02F7  2ADB               	goto	i1l1526
  2852  02F8                     i1l1908:
  2853                           
  2854                           ; Switch size 1, requested type "simple"
  2855                           ; Number of cases is 3, Range of values is 8 to 12
  2856                           ; switch strategies available:
  2857                           ; Name         Instructions Cycles
  2858                           ; simple_byte           10     6 (average)
  2859                           ; direct_byte           26    11 (fixed)
  2860                           ; jumptable            263     9 (fixed)
  2861                           ;	Chosen strategy is simple_byte
  2862  02F8  087A               	movf	??i1_lcd_putc,w
  2863  02F9  3A08               	xorlw	8	; case 8
  2864  02FA  1903               	skipnz
  2865  02FB  2AC6               	goto	i1l1522
  2866  02FC  3A02               	xorlw	2	; case 10
  2867  02FD  1903               	skipnz
  2868  02FE  2ABD               	goto	i1l1520
  2869  02FF  3A06               	xorlw	6	; case 12
  2870  0300  1903               	skipnz
  2871  0301  2AAA               	goto	i1l1516
  2872  0302  2ADB               	goto	i1l1526
  2873  0303                     i1l72:
  2874  0303  0008               	return
  2875  0304                     __end_ofi1_lcd_putc:
  2876                           
  2877                           	psect	text15
  2878  0560                     __ptext15:	
  2879 ;; *************** function i1_lcd_gotoxy *****************
  2880 ;; Defined at:
  2881 ;;		line 167 in file "lcd.c"
  2882 ;; Parameters:    Size  Location     Type
  2883 ;;  col             1    wreg     unsigned char 
  2884 ;;  row             1    6[COMMON] unsigned char 
  2885 ;; Auto vars:     Size  Location     Type
  2886 ;;  col             1    8[COMMON] unsigned char 
  2887 ;;  address         1    9[COMMON] unsigned char 
  2888 ;; Return value:  Size  Location     Type
  2889 ;;                  1    wreg      void 
  2890 ;; Registers used:
  2891 ;;		wreg, status,2, status,0, pclath, cstack
  2892 ;; Tracked objects:
  2893 ;;		On entry : 0/0
  2894 ;;		On exit  : 0/0
  2895 ;;		Unchanged: 0/0
  2896 ;; Data sizes:     COMMON   BANK0   BANK1   BANK3   BANK2
  2897 ;;      Params:         1       0       0       0       0
  2898 ;;      Locals:         2       0       0       0       0
  2899 ;;      Temps:          1       0       0       0       0
  2900 ;;      Totals:         4       0       0       0       0
  2901 ;;Total ram usage:        4 bytes
  2902 ;; Hardware stack levels used: 1
  2903 ;; Hardware stack levels required when called: 2
  2904 ;; This function calls:
  2905 ;;		i1_lcd_busy
  2906 ;;		i1_lcd_put_byte
  2907 ;; This function is called by:
  2908 ;;		_myIsr
  2909 ;;		i1_lcd_putc
  2910 ;; This function uses a non-reentrant model
  2911 ;;
  2912                           
  2913                           
  2914                           ;psect for function i1_lcd_gotoxy
  2915  0560                     i1_lcd_gotoxy:
  2916                           
  2917                           ;incstack = 0
  2918 ;; hardware stack exceeded
  2919                           ; Regs used in i1_lcd_gotoxy: [wreg+status,2+status,0+pclath+cstack]
  2920                           ;i1lcd_gotoxy@col stored from wreg
  2921  0560  00F8               	movwf	i1lcd_gotoxy@col
  2922  0561                     i1l1490:
  2923                           
  2924                           ;lcd.c: 167: void lcd_gotoxy(unsigned char col, unsigned char row);lcd.c: 168: {;lcd.c: 
      +                          170:  unsigned char address;;lcd.c: 173:  if(row!=0)
  2925  0561  0876               	movf	i1lcd_gotoxy@row,w
  2926  0562  1903               	btfsc	3,2
  2927  0563  2D65               	goto	u100_21
  2928  0564  2D66               	goto	u100_20
  2929  0565                     u100_21:
  2930  0565  2D6B               	goto	i1l1494
  2931  0566                     u100_20:
  2932  0566                     i1l1492:
  2933                           
  2934                           ;lcd.c: 174:   address=0x40;
  2935  0566  3040               	movlw	64
  2936  0567  00F7               	movwf	??i1_lcd_gotoxy
  2937  0568  0877               	movf	??i1_lcd_gotoxy,w
  2938  0569  00F9               	movwf	i1lcd_gotoxy@address
  2939  056A  2D6C               	goto	i1l1496
  2940  056B                     i1l1494:
  2941                           
  2942                           ;lcd.c: 176:   address=0;
  2943  056B  01F9               	clrf	i1lcd_gotoxy@address
  2944  056C                     i1l1496:
  2945                           
  2946                           ;lcd.c: 178:  address += col;
  2947  056C  0878               	movf	i1lcd_gotoxy@col,w
  2948  056D  00F7               	movwf	??i1_lcd_gotoxy
  2949  056E  0877               	movf	??i1_lcd_gotoxy,w
  2950  056F  07F9               	addwf	i1lcd_gotoxy@address,f
  2951  0570                     i1l1498:
  2952                           
  2953                           ;lcd.c: 180:  lcd_put_byte(0,0x80|address);
  2954  0570  0879               	movf	i1lcd_gotoxy@address,w
  2955  0571  3880               	iorlw	128
  2956  0572  00F7               	movwf	??i1_lcd_gotoxy
  2957  0573  0877               	movf	??i1_lcd_gotoxy,w
  2958  0574  00F3               	movwf	i1lcd_put_byte@b
  2959  0575  3000               	movlw	0
  2960  0576  120A  118A  2497  120A  118A  	fcall	i1_lcd_put_byte
  2961  057B                     i1l1500:	
  2962                           ;lcd.c: 181:  while(lcd_busy());
  2963                           
  2964  057B  120A  118A  2508  120A  118A  	fcall	i1_lcd_busy
  2965  0580  3A00               	xorlw	0
  2966  0581  1D03               	skipz
  2967  0582  2D84               	goto	u101_21
  2968  0583  2D85               	goto	u101_20
  2969  0584                     u101_21:
  2970  0584  2D7B               	goto	i1l1500
  2971  0585                     u101_20:
  2972  0585                     i1l54:
  2973  0585  0008               	return
  2974  0586                     __end_ofi1_lcd_gotoxy:
  2975                           
  2976                           	psect	text16
  2977  0497                     __ptext16:	
  2978 ;; *************** function i1_lcd_put_byte *****************
  2979 ;; Defined at:
  2980 ;;		line 134 in file "lcd.c"
  2981 ;; Parameters:    Size  Location     Type
  2982 ;;  rs              1    wreg     unsigned char 
  2983 ;;  b               1    3[COMMON] unsigned char 
  2984 ;; Auto vars:     Size  Location     Type
  2985 ;;  rs              1    5[COMMON] unsigned char 
  2986 ;; Return value:  Size  Location     Type
  2987 ;;                  1    wreg      void 
  2988 ;; Registers used:
  2989 ;;		wreg, status,2, status,0, pclath, cstack
  2990 ;; Tracked objects:
  2991 ;;		On entry : 0/0
  2992 ;;		On exit  : 0/0
  2993 ;;		Unchanged: 0/0
  2994 ;; Data sizes:     COMMON   BANK0   BANK1   BANK3   BANK2
  2995 ;;      Params:         1       0       0       0       0
  2996 ;;      Locals:         1       0       0       0       0
  2997 ;;      Temps:          1       0       0       0       0
  2998 ;;      Totals:         3       0       0       0       0
  2999 ;;Total ram usage:        3 bytes
  3000 ;; Hardware stack levels used: 1
  3001 ;; Hardware stack levels required when called: 1
  3002 ;; This function calls:
  3003 ;;		i1_lcd_put_nibble
  3004 ;; This function is called by:
  3005 ;;		i1_lcd_gotoxy
  3006 ;;		i1_lcd_putc
  3007 ;;		i1_lcd_init
  3008 ;; This function uses a non-reentrant model
  3009 ;;
  3010                           
  3011                           
  3012                           ;psect for function i1_lcd_put_byte
  3013  0497                     i1_lcd_put_byte:
  3014                           
  3015                           ;incstack = 0
  3016 ;; hardware stack exceeded
  3017                           ; Regs used in i1_lcd_put_byte: [wreg+status,2+status,0+pclath+cstack]
  3018                           ;i1lcd_put_byte@rs stored from wreg
  3019  0497  00F5               	movwf	i1lcd_put_byte@rs
  3020  0498                     i1l1436:
  3021                           
  3022                           ;lcd.c: 134: void lcd_put_byte(unsigned char rs, unsigned char b);lcd.c: 135: {;lcd.c: 1
      +                          39:  TRISD4 = 0;
  3023  0498  1683               	bsf	3,5	;RP0=1, select bank1
  3024  0499  1303               	bcf	3,6	;RP1=0, select bank1
  3025  049A  1208               	bcf	8,4	;volatile
  3026                           
  3027                           ;lcd.c: 140:  TRISD5 = 0;
  3028  049B  1288               	bcf	8,5	;volatile
  3029                           
  3030                           ;lcd.c: 141:  TRISD6 = 0;
  3031  049C  1308               	bcf	8,6	;volatile
  3032                           
  3033                           ;lcd.c: 142:  TRISD7 = 0;
  3034  049D  1388               	bcf	8,7	;volatile
  3035  049E                     i1l1438:
  3036                           
  3037                           ;lcd.c: 144:  if(rs)
  3038  049E  0875               	movf	i1lcd_put_byte@rs,w
  3039  049F  1903               	btfsc	3,2
  3040  04A0  2CA2               	goto	u96_21
  3041  04A1  2CA3               	goto	u96_20
  3042  04A2                     u96_21:
  3043  04A2  2CA7               	goto	i1l44
  3044  04A3                     u96_20:
  3045  04A3                     i1l1440:
  3046                           
  3047                           ;lcd.c: 145:   RD1 = 1;
  3048  04A3  1283               	bcf	3,5	;RP0=0, select bank0
  3049  04A4  1303               	bcf	3,6	;RP1=0, select bank0
  3050  04A5  1488               	bsf	8,1	;volatile
  3051  04A6  2CAA               	goto	i1l1442
  3052  04A7                     i1l44:	
  3053                           ;lcd.c: 146:  else
  3054                           
  3055                           
  3056                           ;lcd.c: 147:   RD1 = 0;
  3057  04A7  1283               	bcf	3,5	;RP0=0, select bank0
  3058  04A8  1303               	bcf	3,6	;RP1=0, select bank0
  3059  04A9  1088               	bcf	8,1	;volatile
  3060  04AA                     i1l1442:
  3061                           
  3062                           ;lcd.c: 148:  _delay((unsigned long)((20)*(4000000/4000000.0)));
  3063  04AA  3006               	movlw	6
  3064  04AB  00F4               	movwf	??i1_lcd_put_byte
  3065  04AC                     u165_27:
  3066  04AC  0BF4               	decfsz	??i1_lcd_put_byte,f
  3067  04AD  2CAC               	goto	u165_27
  3068  04AE  0000               	nop
  3069  04AF                     i1l1444:
  3070                           
  3071                           ;lcd.c: 150:  RD2 = 0;
  3072  04AF  1283               	bcf	3,5	;RP0=0, select bank0
  3073  04B0  1303               	bcf	3,6	;RP1=0, select bank0
  3074  04B1  1108               	bcf	8,2	;volatile
  3075                           
  3076                           ;lcd.c: 151:  _delay((unsigned long)((20)*(4000000/4000000.0)));
  3077  04B2  3006               	movlw	6
  3078  04B3  00F4               	movwf	??i1_lcd_put_byte
  3079  04B4                     u166_27:
  3080  04B4  0BF4               	decfsz	??i1_lcd_put_byte,f
  3081  04B5  2CB4               	goto	u166_27
  3082  04B6  0000               	nop
  3083  04B7                     i1l1446:
  3084                           
  3085                           ;lcd.c: 153:  RD3 = 0;
  3086  04B7  1283               	bcf	3,5	;RP0=0, select bank0
  3087  04B8  1303               	bcf	3,6	;RP1=0, select bank0
  3088  04B9  1188               	bcf	8,3	;volatile
  3089  04BA                     i1l1448:
  3090                           
  3091                           ;lcd.c: 155:  lcd_put_nibble(b >> 4);
  3092  04BA  0873               	movf	i1lcd_put_byte@b,w
  3093  04BB  00F4               	movwf	??i1_lcd_put_byte
  3094  04BC  3004               	movlw	4
  3095  04BD                     u97_25:
  3096  04BD  1003               	clrc
  3097  04BE  0CF4               	rrf	??i1_lcd_put_byte,f
  3098  04BF  3EFF               	addlw	-1
  3099  04C0  1D03               	skipz
  3100  04C1  2CBD               	goto	u97_25
  3101  04C2  0874               	movf	??i1_lcd_put_byte,w
  3102  04C3  120A  118A  2396  120A  118A  	fcall	i1_lcd_put_nibble
  3103  04C8                     i1l1450:
  3104                           
  3105                           ;lcd.c: 157:  lcd_put_nibble(b & 0xf);
  3106  04C8  0873               	movf	i1lcd_put_byte@b,w
  3107  04C9  390F               	andlw	15
  3108  04CA  120A  118A  2396  120A  118A  	fcall	i1_lcd_put_nibble
  3109  04CF                     i1l46:
  3110  04CF  0008               	return
  3111  04D0                     __end_ofi1_lcd_put_byte:
  3112                           
  3113                           	psect	text17
  3114  0396                     __ptext17:	
  3115 ;; *************** function i1_lcd_put_nibble *****************
  3116 ;; Defined at:
  3117 ;;		line 103 in file "lcd.c"
  3118 ;; Parameters:    Size  Location     Type
  3119 ;;  b               1    wreg     unsigned char 
  3120 ;; Auto vars:     Size  Location     Type
  3121 ;;  b               1    1[COMMON] unsigned char 
  3122 ;;  temp            1    2[COMMON] struct _BYTE_VAL
  3123 ;; Return value:  Size  Location     Type
  3124 ;;                  1    wreg      void 
  3125 ;; Registers used:
  3126 ;;		wreg
  3127 ;; Tracked objects:
  3128 ;;		On entry : 0/0
  3129 ;;		On exit  : 0/0
  3130 ;;		Unchanged: 0/0
  3131 ;; Data sizes:     COMMON   BANK0   BANK1   BANK3   BANK2
  3132 ;;      Params:         0       0       0       0       0
  3133 ;;      Locals:         2       0       0       0       0
  3134 ;;      Temps:          1       0       0       0       0
  3135 ;;      Totals:         3       0       0       0       0
  3136 ;;Total ram usage:        3 bytes
  3137 ;; Hardware stack levels used: 1
  3138 ;; This function calls:
  3139 ;;		Nothing
  3140 ;; This function is called by:
  3141 ;;		i1_lcd_put_byte
  3142 ;;		i1_lcd_init
  3143 ;; This function uses a non-reentrant model
  3144 ;;
  3145                           
  3146                           
  3147                           ;psect for function i1_lcd_put_nibble
  3148  0396                     i1_lcd_put_nibble:
  3149                           
  3150                           ;incstack = 0
  3151 ;; hardware stack exceeded
  3152                           ; Regs used in i1_lcd_put_nibble: [wreg]
  3153                           ;i1lcd_put_nibble@b stored from wreg
  3154  0396  00F1               	movwf	i1lcd_put_nibble@b
  3155  0397                     i1l1382:
  3156                           
  3157                           ;lcd.c: 103: void lcd_put_nibble(unsigned char b);lcd.c: 104: {;lcd.c: 106:  BYTE_VAL te
      +                          mp;;lcd.c: 109:  TRISD4 = 0;
  3158  0397  1683               	bsf	3,5	;RP0=1, select bank1
  3159  0398  1303               	bcf	3,6	;RP1=0, select bank1
  3160  0399  1208               	bcf	8,4	;volatile
  3161                           
  3162                           ;lcd.c: 110:  TRISD5 = 0;
  3163  039A  1288               	bcf	8,5	;volatile
  3164                           
  3165                           ;lcd.c: 111:  TRISD6 = 0;
  3166  039B  1308               	bcf	8,6	;volatile
  3167                           
  3168                           ;lcd.c: 112:  TRISD7 = 0;
  3169  039C  1388               	bcf	8,7	;volatile
  3170  039D                     i1l1384:
  3171                           
  3172                           ;lcd.c: 114:  temp.Val = b;
  3173  039D  0871               	movf	i1lcd_put_nibble@b,w
  3174  039E  00F0               	movwf	??i1_lcd_put_nibble
  3175  039F  0870               	movf	??i1_lcd_put_nibble,w
  3176  03A0  00F2               	movwf	i1lcd_put_nibble@temp
  3177  03A1                     i1l1386:
  3178                           
  3179                           ;lcd.c: 116:  RD4 = temp.bits.b0;
  3180  03A1  1872               	btfsc	i1lcd_put_nibble@temp,0
  3181  03A2  2BA4               	goto	u80_21
  3182  03A3  2BA8               	goto	u80_20
  3183  03A4                     u80_21:
  3184  03A4  1283               	bcf	3,5	;RP0=0, select bank0
  3185  03A5  1303               	bcf	3,6	;RP1=0, select bank0
  3186  03A6  1608               	bsf	8,4	;volatile
  3187  03A7  2BAB               	goto	u81_24
  3188  03A8                     u80_20:
  3189  03A8  1283               	bcf	3,5	;RP0=0, select bank0
  3190  03A9  1303               	bcf	3,6	;RP1=0, select bank0
  3191  03AA  1208               	bcf	8,4	;volatile
  3192  03AB                     u81_24:
  3193  03AB                     i1l1388:
  3194                           
  3195                           ;lcd.c: 117:  RD5 = temp.bits.b1;
  3196  03AB  18F2               	btfsc	i1lcd_put_nibble@temp,1
  3197  03AC  2BAE               	goto	u82_21
  3198  03AD  2BB2               	goto	u82_20
  3199  03AE                     u82_21:
  3200  03AE  1283               	bcf	3,5	;RP0=0, select bank0
  3201  03AF  1303               	bcf	3,6	;RP1=0, select bank0
  3202  03B0  1688               	bsf	8,5	;volatile
  3203  03B1  2BB5               	goto	u83_24
  3204  03B2                     u82_20:
  3205  03B2  1283               	bcf	3,5	;RP0=0, select bank0
  3206  03B3  1303               	bcf	3,6	;RP1=0, select bank0
  3207  03B4  1288               	bcf	8,5	;volatile
  3208  03B5                     u83_24:
  3209  03B5                     i1l1390:
  3210                           
  3211                           ;lcd.c: 118:  RD6 = temp.bits.b2;
  3212  03B5  1972               	btfsc	i1lcd_put_nibble@temp,2
  3213  03B6  2BB8               	goto	u84_21
  3214  03B7  2BBC               	goto	u84_20
  3215  03B8                     u84_21:
  3216  03B8  1283               	bcf	3,5	;RP0=0, select bank0
  3217  03B9  1303               	bcf	3,6	;RP1=0, select bank0
  3218  03BA  1708               	bsf	8,6	;volatile
  3219  03BB  2BBF               	goto	u85_24
  3220  03BC                     u84_20:
  3221  03BC  1283               	bcf	3,5	;RP0=0, select bank0
  3222  03BD  1303               	bcf	3,6	;RP1=0, select bank0
  3223  03BE  1308               	bcf	8,6	;volatile
  3224  03BF                     u85_24:
  3225  03BF                     i1l1392:
  3226                           
  3227                           ;lcd.c: 119:  RD7 = temp.bits.b3;
  3228  03BF  19F2               	btfsc	i1lcd_put_nibble@temp,3
  3229  03C0  2BC2               	goto	u86_21
  3230  03C1  2BC6               	goto	u86_20
  3231  03C2                     u86_21:
  3232  03C2  1283               	bcf	3,5	;RP0=0, select bank0
  3233  03C3  1303               	bcf	3,6	;RP1=0, select bank0
  3234  03C4  1788               	bsf	8,7	;volatile
  3235  03C5  2BC9               	goto	u87_24
  3236  03C6                     u86_20:
  3237  03C6  1283               	bcf	3,5	;RP0=0, select bank0
  3238  03C7  1303               	bcf	3,6	;RP1=0, select bank0
  3239  03C8  1388               	bcf	8,7	;volatile
  3240  03C9                     u87_24:
  3241                           
  3242                           ;lcd.c: 121:  _delay((unsigned long)((20)*(4000000/4000000.0)));
  3243  03C9  3006               	movlw	6
  3244  03CA  00F0               	movwf	??i1_lcd_put_nibble
  3245  03CB                     u167_27:
  3246  03CB  0BF0               	decfsz	??i1_lcd_put_nibble,f
  3247  03CC  2BCB               	goto	u167_27
  3248  03CD  0000               	nop
  3249  03CE                     i1l1394:
  3250                           
  3251                           ;lcd.c: 122:  RD3 = 1;
  3252  03CE  1283               	bcf	3,5	;RP0=0, select bank0
  3253  03CF  1303               	bcf	3,6	;RP1=0, select bank0
  3254  03D0  1588               	bsf	8,3	;volatile
  3255                           
  3256                           ;lcd.c: 123:  _delay((unsigned long)((20)*(4000000/4000000.0)));
  3257  03D1  3006               	movlw	6
  3258  03D2  00F0               	movwf	??i1_lcd_put_nibble
  3259  03D3                     u168_27:
  3260  03D3  0BF0               	decfsz	??i1_lcd_put_nibble,f
  3261  03D4  2BD3               	goto	u168_27
  3262  03D5  0000               	nop
  3263  03D6                     i1l1396:
  3264                           
  3265                           ;lcd.c: 124:  RD3 = 0;
  3266  03D6  1283               	bcf	3,5	;RP0=0, select bank0
  3267  03D7  1303               	bcf	3,6	;RP1=0, select bank0
  3268  03D8  1188               	bcf	8,3	;volatile
  3269  03D9                     i1l41:
  3270  03D9  0008               	return
  3271  03DA                     __end_ofi1_lcd_put_nibble:
  3272                           
  3273                           	psect	text18
  3274  0508                     __ptext18:	
  3275 ;; *************** function i1_lcd_busy *****************
  3276 ;; Defined at:
  3277 ;;		line 18 in file "lcd.c"
  3278 ;; Parameters:    Size  Location     Type
  3279 ;;		None
  3280 ;; Auto vars:     Size  Location     Type
  3281 ;;  busy            1    1[COMMON] unsigned char 
  3282 ;; Return value:  Size  Location     Type
  3283 ;;                  1    wreg      unsigned char 
  3284 ;; Registers used:
  3285 ;;		wreg, status,2
  3286 ;; Tracked objects:
  3287 ;;		On entry : 0/0
  3288 ;;		On exit  : 0/0
  3289 ;;		Unchanged: 0/0
  3290 ;; Data sizes:     COMMON   BANK0   BANK1   BANK3   BANK2
  3291 ;;      Params:         0       0       0       0       0
  3292 ;;      Locals:         1       0       0       0       0
  3293 ;;      Temps:          1       0       0       0       0
  3294 ;;      Totals:         2       0       0       0       0
  3295 ;;Total ram usage:        2 bytes
  3296 ;; Hardware stack levels used: 1
  3297 ;; This function calls:
  3298 ;;		Nothing
  3299 ;; This function is called by:
  3300 ;;		i1_lcd_gotoxy
  3301 ;;		i1_lcd_putc
  3302 ;;		i1_lcd_init
  3303 ;; This function uses a non-reentrant model
  3304 ;;
  3305                           
  3306                           
  3307                           ;psect for function i1_lcd_busy
  3308  0508                     i1_lcd_busy:
  3309  0508                     i1l1414:	
  3310                           ;incstack = 0
  3311 ;; hardware stack exceeded
  3312                           ; Regs used in i1_lcd_busy: [wreg+status,2]
  3313                           
  3314                           
  3315                           ;lcd.c: 21: unsigned char busy;;lcd.c: 24:  TRISD4 = 1;
  3316  0508  1683               	bsf	3,5	;RP0=1, select bank1
  3317  0509  1303               	bcf	3,6	;RP1=0, select bank1
  3318  050A  1608               	bsf	8,4	;volatile
  3319                           
  3320                           ;lcd.c: 25:  TRISD5 = 1;
  3321  050B  1688               	bsf	8,5	;volatile
  3322                           
  3323                           ;lcd.c: 26:  TRISD6 = 1;
  3324  050C  1708               	bsf	8,6	;volatile
  3325                           
  3326                           ;lcd.c: 27:  TRISD7 = 1;
  3327  050D  1788               	bsf	8,7	;volatile
  3328                           
  3329                           ;lcd.c: 29:  RD2 = 1;
  3330  050E  1283               	bcf	3,5	;RP0=0, select bank0
  3331  050F  1303               	bcf	3,6	;RP1=0, select bank0
  3332  0510  1508               	bsf	8,2	;volatile
  3333                           
  3334                           ;lcd.c: 30:  RD1 = 0;
  3335  0511  1088               	bcf	8,1	;volatile
  3336  0512                     i1l1416:
  3337                           
  3338                           ;lcd.c: 31:  _delay((unsigned long)((20)*(4000000/4000000.0)));
  3339  0512  3006               	movlw	6
  3340  0513  00F0               	movwf	??i1_lcd_busy
  3341  0514                     u169_27:
  3342  0514  0BF0               	decfsz	??i1_lcd_busy,f
  3343  0515  2D14               	goto	u169_27
  3344  0516  0000               	nop
  3345  0517                     i1l1418:
  3346                           
  3347                           ;lcd.c: 32:  RD3 = 1;
  3348  0517  1283               	bcf	3,5	;RP0=0, select bank0
  3349  0518  1303               	bcf	3,6	;RP1=0, select bank0
  3350  0519  1588               	bsf	8,3	;volatile
  3351                           
  3352                           ;lcd.c: 33:  _delay((unsigned long)((20)*(4000000/4000000.0)));
  3353  051A  3006               	movlw	6
  3354  051B  00F0               	movwf	??i1_lcd_busy
  3355  051C                     u170_27:
  3356  051C  0BF0               	decfsz	??i1_lcd_busy,f
  3357  051D  2D1C               	goto	u170_27
  3358  051E  0000               	nop
  3359  051F                     i1l1420:
  3360                           
  3361                           ;lcd.c: 35:  busy = RD7;
  3362  051F  3000               	movlw	0
  3363  0520  1283               	bcf	3,5	;RP0=0, select bank0
  3364  0521  1303               	bcf	3,6	;RP1=0, select bank0
  3365  0522  1B88               	btfsc	8,7	;volatile
  3366  0523  3001               	movlw	1
  3367  0524  00F1               	movwf	i1lcd_busy@busy
  3368  0525                     i1l1422:
  3369                           
  3370                           ;lcd.c: 37:  RD3 = 0;
  3371  0525  1188               	bcf	8,3	;volatile
  3372  0526                     i1l1424:
  3373                           
  3374                           ;lcd.c: 38:  _delay((unsigned long)((20)*(4000000/4000000.0)));
  3375  0526  3006               	movlw	6
  3376  0527  00F0               	movwf	??i1_lcd_busy
  3377  0528                     u171_27:
  3378  0528  0BF0               	decfsz	??i1_lcd_busy,f
  3379  0529  2D28               	goto	u171_27
  3380  052A  0000               	nop
  3381  052B                     i1l1426:
  3382                           
  3383                           ;lcd.c: 39:  RD3 = 1;
  3384  052B  1283               	bcf	3,5	;RP0=0, select bank0
  3385  052C  1303               	bcf	3,6	;RP1=0, select bank0
  3386  052D  1588               	bsf	8,3	;volatile
  3387  052E                     i1l1428:
  3388                           
  3389                           ;lcd.c: 40:  _delay((unsigned long)((20)*(4000000/4000000.0)));
  3390  052E  3006               	movlw	6
  3391  052F  00F0               	movwf	??i1_lcd_busy
  3392  0530                     u172_27:
  3393  0530  0BF0               	decfsz	??i1_lcd_busy,f
  3394  0531  2D30               	goto	u172_27
  3395  0532  0000               	nop
  3396  0533                     i1l1430:
  3397                           
  3398                           ;lcd.c: 41:  RD3 = 0;
  3399  0533  1283               	bcf	3,5	;RP0=0, select bank0
  3400  0534  1303               	bcf	3,6	;RP1=0, select bank0
  3401  0535  1188               	bcf	8,3	;volatile
  3402  0536                     i1l1432:
  3403                           
  3404                           ;lcd.c: 43:  return busy;
  3405  0536  0871               	movf	i1lcd_busy@busy,w
  3406  0537                     i1l33:
  3407  0537  0008               	return
  3408  0538                     __end_ofi1_lcd_busy:
  3409                           
  3410                           	psect	text19
  3411  045D                     __ptext19:	
  3412 ;; *************** function ___lwmod *****************
  3413 ;; Defined at:
  3414 ;;		line 5 in file "C:\Program Files\Microchip\xc8\v2.32\pic\sources\c90\common\lwmod.c"
  3415 ;; Parameters:    Size  Location     Type
  3416 ;;  divisor         2    8[COMMON] unsigned int 
  3417 ;;  dividend        2   10[COMMON] unsigned int 
  3418 ;; Auto vars:     Size  Location     Type
  3419 ;;  counter         1   13[COMMON] unsigned char 
  3420 ;; Return value:  Size  Location     Type
  3421 ;;                  2    8[COMMON] unsigned int 
  3422 ;; Registers used:
  3423 ;;		wreg, status,2, status,0
  3424 ;; Tracked objects:
  3425 ;;		On entry : 0/0
  3426 ;;		On exit  : 0/0
  3427 ;;		Unchanged: 0/0
  3428 ;; Data sizes:     COMMON   BANK0   BANK1   BANK3   BANK2
  3429 ;;      Params:         4       0       0       0       0
  3430 ;;      Locals:         1       0       0       0       0
  3431 ;;      Temps:          1       0       0       0       0
  3432 ;;      Totals:         6       0       0       0       0
  3433 ;;Total ram usage:        6 bytes
  3434 ;; Hardware stack levels used: 1
  3435 ;; This function calls:
  3436 ;;		Nothing
  3437 ;; This function is called by:
  3438 ;;		_printf
  3439 ;; This function uses a non-reentrant model
  3440 ;;
  3441                           
  3442                           
  3443                           ;psect for function ___lwmod
  3444  045D                     ___lwmod:
  3445  045D                     i1l1588:	
  3446                           ;incstack = 0
  3447                           ; Regs used in ___lwmod: [wreg+status,2+status,0]
  3448                           
  3449  045D  0878               	movf	___lwmod@divisor,w
  3450  045E  0479               	iorwf	___lwmod@divisor+1,w
  3451  045F  1903               	btfsc	3,2
  3452  0460  2C62               	goto	u117_21
  3453  0461  2C63               	goto	u117_20
  3454  0462                     u117_21:
  3455  0462  2C92               	goto	i1l1606
  3456  0463                     u117_20:
  3457  0463                     i1l1590:
  3458  0463  01FD               	clrf	___lwmod@counter
  3459  0464  0AFD               	incf	___lwmod@counter,f
  3460  0465  2C71               	goto	i1l1596
  3461  0466                     i1l1592:
  3462  0466  3001               	movlw	1
  3463  0467                     u118_25:
  3464  0467  1003               	clrc
  3465  0468  0DF8               	rlf	___lwmod@divisor,f
  3466  0469  0DF9               	rlf	___lwmod@divisor+1,f
  3467  046A  3EFF               	addlw	-1
  3468  046B  1D03               	skipz
  3469  046C  2C67               	goto	u118_25
  3470  046D                     i1l1594:
  3471  046D  3001               	movlw	1
  3472  046E  00FC               	movwf	??___lwmod
  3473  046F  087C               	movf	??___lwmod,w
  3474  0470  07FD               	addwf	___lwmod@counter,f
  3475  0471                     i1l1596:
  3476  0471  1FF9               	btfss	___lwmod@divisor+1,7
  3477  0472  2C74               	goto	u119_21
  3478  0473  2C75               	goto	u119_20
  3479  0474                     u119_21:
  3480  0474  2C66               	goto	i1l1592
  3481  0475                     u119_20:
  3482  0475                     i1l1598:
  3483  0475  0879               	movf	___lwmod@divisor+1,w
  3484  0476  027B               	subwf	___lwmod@dividend+1,w
  3485  0477  1D03               	skipz
  3486  0478  2C7B               	goto	u120_25
  3487  0479  0878               	movf	___lwmod@divisor,w
  3488  047A  027A               	subwf	___lwmod@dividend,w
  3489  047B                     u120_25:
  3490  047B  1C03               	skipc
  3491  047C  2C7E               	goto	u120_21
  3492  047D  2C7F               	goto	u120_20
  3493  047E                     u120_21:
  3494  047E  2C85               	goto	i1l1602
  3495  047F                     u120_20:
  3496  047F                     i1l1600:
  3497  047F  0878               	movf	___lwmod@divisor,w
  3498  0480  02FA               	subwf	___lwmod@dividend,f
  3499  0481  0879               	movf	___lwmod@divisor+1,w
  3500  0482  1C03               	skipc
  3501  0483  03FB               	decf	___lwmod@dividend+1,f
  3502  0484  02FB               	subwf	___lwmod@dividend+1,f
  3503  0485                     i1l1602:
  3504  0485  3001               	movlw	1
  3505  0486                     u121_25:
  3506  0486  1003               	clrc
  3507  0487  0CF9               	rrf	___lwmod@divisor+1,f
  3508  0488  0CF8               	rrf	___lwmod@divisor,f
  3509  0489  3EFF               	addlw	-1
  3510  048A  1D03               	skipz
  3511  048B  2C86               	goto	u121_25
  3512  048C                     i1l1604:
  3513  048C  3001               	movlw	1
  3514  048D  02FD               	subwf	___lwmod@counter,f
  3515  048E  1D03               	btfss	3,2
  3516  048F  2C91               	goto	u122_21
  3517  0490  2C92               	goto	u122_20
  3518  0491                     u122_21:
  3519  0491  2C75               	goto	i1l1598
  3520  0492                     u122_20:
  3521  0492                     i1l1606:
  3522  0492  087B               	movf	___lwmod@dividend+1,w
  3523  0493  00F9               	movwf	?___lwmod+1
  3524  0494  087A               	movf	___lwmod@dividend,w
  3525  0495  00F8               	movwf	?___lwmod
  3526  0496                     i1l594:
  3527  0496  0008               	return
  3528  0497                     __end_of___lwmod:
  3529                           
  3530                           	psect	text20
  3531  03DA                     __ptext20:	
  3532 ;; *************** function ___lwdiv *****************
  3533 ;; Defined at:
  3534 ;;		line 5 in file "C:\Program Files\Microchip\xc8\v2.32\pic\sources\c90\common\lwdiv.c"
  3535 ;; Parameters:    Size  Location     Type
  3536 ;;  divisor         2    0[COMMON] unsigned int 
  3537 ;;  dividend        2    2[COMMON] unsigned int 
  3538 ;; Auto vars:     Size  Location     Type
  3539 ;;  quotient        2    5[COMMON] unsigned int 
  3540 ;;  counter         1    7[COMMON] unsigned char 
  3541 ;; Return value:  Size  Location     Type
  3542 ;;                  2    0[COMMON] unsigned int 
  3543 ;; Registers used:
  3544 ;;		wreg, status,2, status,0
  3545 ;; Tracked objects:
  3546 ;;		On entry : 0/0
  3547 ;;		On exit  : 0/0
  3548 ;;		Unchanged: 0/0
  3549 ;; Data sizes:     COMMON   BANK0   BANK1   BANK3   BANK2
  3550 ;;      Params:         4       0       0       0       0
  3551 ;;      Locals:         3       0       0       0       0
  3552 ;;      Temps:          1       0       0       0       0
  3553 ;;      Totals:         8       0       0       0       0
  3554 ;;Total ram usage:        8 bytes
  3555 ;; Hardware stack levels used: 1
  3556 ;; This function calls:
  3557 ;;		Nothing
  3558 ;; This function is called by:
  3559 ;;		_printf
  3560 ;; This function uses a non-reentrant model
  3561 ;;
  3562                           
  3563                           
  3564                           ;psect for function ___lwdiv
  3565  03DA                     ___lwdiv:
  3566  03DA                     i1l1562:	
  3567                           ;incstack = 0
  3568                           ; Regs used in ___lwdiv: [wreg+status,2+status,0]
  3569                           
  3570  03DA  01F5               	clrf	___lwdiv@quotient
  3571  03DB  01F6               	clrf	___lwdiv@quotient+1
  3572  03DC                     i1l1564:
  3573  03DC  0870               	movf	___lwdiv@divisor,w
  3574  03DD  0471               	iorwf	___lwdiv@divisor+1,w
  3575  03DE  1903               	btfsc	3,2
  3576  03DF  2BE1               	goto	u110_21
  3577  03E0  2BE2               	goto	u110_20
  3578  03E1                     u110_21:
  3579  03E1  2C19               	goto	i1l1584
  3580  03E2                     u110_20:
  3581  03E2                     i1l1566:
  3582  03E2  01F7               	clrf	___lwdiv@counter
  3583  03E3  0AF7               	incf	___lwdiv@counter,f
  3584  03E4  2BF0               	goto	i1l1572
  3585  03E5                     i1l1568:
  3586  03E5  3001               	movlw	1
  3587  03E6                     u111_25:
  3588  03E6  1003               	clrc
  3589  03E7  0DF0               	rlf	___lwdiv@divisor,f
  3590  03E8  0DF1               	rlf	___lwdiv@divisor+1,f
  3591  03E9  3EFF               	addlw	-1
  3592  03EA  1D03               	skipz
  3593  03EB  2BE6               	goto	u111_25
  3594  03EC                     i1l1570:
  3595  03EC  3001               	movlw	1
  3596  03ED  00F4               	movwf	??___lwdiv
  3597  03EE  0874               	movf	??___lwdiv,w
  3598  03EF  07F7               	addwf	___lwdiv@counter,f
  3599  03F0                     i1l1572:
  3600  03F0  1FF1               	btfss	___lwdiv@divisor+1,7
  3601  03F1  2BF3               	goto	u112_21
  3602  03F2  2BF4               	goto	u112_20
  3603  03F3                     u112_21:
  3604  03F3  2BE5               	goto	i1l1568
  3605  03F4                     u112_20:
  3606  03F4                     i1l1574:
  3607  03F4  3001               	movlw	1
  3608  03F5                     u113_25:
  3609  03F5  1003               	clrc
  3610  03F6  0DF5               	rlf	___lwdiv@quotient,f
  3611  03F7  0DF6               	rlf	___lwdiv@quotient+1,f
  3612  03F8  3EFF               	addlw	-1
  3613  03F9  1D03               	skipz
  3614  03FA  2BF5               	goto	u113_25
  3615  03FB  0871               	movf	___lwdiv@divisor+1,w
  3616  03FC  0273               	subwf	___lwdiv@dividend+1,w
  3617  03FD  1D03               	skipz
  3618  03FE  2C01               	goto	u114_25
  3619  03FF  0870               	movf	___lwdiv@divisor,w
  3620  0400  0272               	subwf	___lwdiv@dividend,w
  3621  0401                     u114_25:
  3622  0401  1C03               	skipc
  3623  0402  2C04               	goto	u114_21
  3624  0403  2C05               	goto	u114_20
  3625  0404                     u114_21:
  3626  0404  2C0C               	goto	i1l1580
  3627  0405                     u114_20:
  3628  0405                     i1l1576:
  3629  0405  0870               	movf	___lwdiv@divisor,w
  3630  0406  02F2               	subwf	___lwdiv@dividend,f
  3631  0407  0871               	movf	___lwdiv@divisor+1,w
  3632  0408  1C03               	skipc
  3633  0409  03F3               	decf	___lwdiv@dividend+1,f
  3634  040A  02F3               	subwf	___lwdiv@dividend+1,f
  3635  040B                     i1l1578:
  3636  040B  1475               	bsf	___lwdiv@quotient,0
  3637  040C                     i1l1580:
  3638  040C  3001               	movlw	1
  3639  040D                     u115_25:
  3640  040D  1003               	clrc
  3641  040E  0CF1               	rrf	___lwdiv@divisor+1,f
  3642  040F  0CF0               	rrf	___lwdiv@divisor,f
  3643  0410  3EFF               	addlw	-1
  3644  0411  1D03               	skipz
  3645  0412  2C0D               	goto	u115_25
  3646  0413                     i1l1582:
  3647  0413  3001               	movlw	1
  3648  0414  02F7               	subwf	___lwdiv@counter,f
  3649  0415  1D03               	btfss	3,2
  3650  0416  2C18               	goto	u116_21
  3651  0417  2C19               	goto	u116_20
  3652  0418                     u116_21:
  3653  0418  2BF4               	goto	i1l1574
  3654  0419                     u116_20:
  3655  0419                     i1l1584:
  3656  0419  0876               	movf	___lwdiv@quotient+1,w
  3657  041A  00F1               	movwf	?___lwdiv+1
  3658  041B  0875               	movf	___lwdiv@quotient,w
  3659  041C  00F0               	movwf	?___lwdiv
  3660  041D                     i1l584:
  3661  041D  0008               	return
  3662  041E                     __end_of___lwdiv:
  3663  007E                     btemp	set	126	;btemp
  3664  007E                     wtemp0	set	126
  3665                           
  3666                           	psect	config
  3667                           
  3668                           ;Config register CONFIG1 @ 0x2007
  3669                           ;	Oscillator Selection bits
  3670                           ;	FOSC = HS, HS oscillator: High-speed crystal/resonator on RA6/OSC2/CLKOUT and RA7/OSC1
      +                          /CLKIN
  3671                           ;	Watchdog Timer Enable bit
  3672                           ;	WDTE = OFF, WDT disabled and can be enabled by SWDTEN bit of the WDTCON register
  3673                           ;	Power-up Timer Enable bit
  3674                           ;	PWRTE = OFF, PWRT disabled
  3675                           ;	RE3/MCLR pin function select bit
  3676                           ;	MCLRE = ON, RE3/MCLR pin function is MCLR
  3677                           ;	Code Protection bit
  3678                           ;	CP = OFF, Program memory code protection is disabled
  3679                           ;	Data Code Protection bit
  3680                           ;	CPD = OFF, Data memory code protection is disabled
  3681                           ;	Brown Out Reset Selection bits
  3682                           ;	BOREN = OFF, BOR disabled
  3683                           ;	Internal External Switchover bit
  3684                           ;	IESO = OFF, Internal/External Switchover mode is disabled
  3685                           ;	Fail-Safe Clock Monitor Enabled bit
  3686                           ;	FCMEN = OFF, Fail-Safe Clock Monitor is disabled
  3687                           ;	Low Voltage Programming Enable bit
  3688                           ;	LVP = OFF, RB3 pin has digital I/O, HV on MCLR must be used for programming
  3689                           ;	In-Circuit Debugger Mode bit
  3690                           ;	DEBUG = 0x1, unprogrammed default
  3691  2007                     	org	8199
  3692  2007  20F2               	dw	8434
  3693                           
  3694                           ;Config register CONFIG2 @ 0x2008
  3695                           ;	Brown-out Reset Selection bit
  3696                           ;	BOR4V = BOR40V, Brown-out Reset set to 4.0V
  3697                           ;	Flash Program Memory Self Write Enable bits
  3698                           ;	WRT = OFF, Write protection off
  3699  2008                     	org	8200
  3700  2008  3FFF               	dw	16383

Data Sizes:
    Strings     3
    Constant    26
    Data        0
    BSS         2
    Persistent  0
    Stack       0

Auto Spaces:
    Space          Size  Autos    Used
    COMMON           14     14      14
    BANK0            80     31      33
    BANK1            80      0       0
    BANK3            96      0       0
    BANK2            96      0       0

Pointer List with Targets:

    printf@f	PTR const unsigned char  size(1) Largest target is 3
		 -> STR_1(CODE[3]), 

    printf@ap	PTR void [1] size(1) Largest target is 2
		 -> ?_printf(BANK0[2]), 

    lcd_puts@s	PTR const unsigned char  size(1) Largest target is 16
		 -> your_name(CODE[16]), 


Critical Paths under _main in COMMON

    None.

Critical Paths under _myIsr in COMMON

    _myIsr->i1_lcd_puts
    i1_lcd_puts->i1_lcd_putc
    i1_lcd_init->i1_lcd_put_byte
    _printf->___lwmod
    _printf->_putch
    _putch->i1_lcd_putc
    i1_lcd_putc->i1_lcd_gotoxy
    i1_lcd_gotoxy->i1_lcd_put_byte
    i1_lcd_put_byte->i1_lcd_put_nibble
    ___lwmod->___lwdiv

Critical Paths under _main in BANK0

    _main->_lcd_puts
    _lcd_puts->_lcd_putc
    _lcd_putc->_lcd_gotoxy
    _lcd_gotoxy->_lcd_put_byte
    _lcd_init->_lcd_put_byte
    _lcd_put_byte->_lcd_put_nibble

Critical Paths under _myIsr in BANK0

    _myIsr->_printf

Critical Paths under _main in BANK1

    None.

Critical Paths under _myIsr in BANK1

    None.

Critical Paths under _main in BANK3

    None.

Critical Paths under _myIsr in BANK3

    None.

Critical Paths under _main in BANK2

    None.

Critical Paths under _myIsr in BANK2

    None.

Call Graph Tables:

 ---------------------------------------------------------------------------------
 (Depth) Function   	        Calls       Base Space   Used Autos Params    Refs
 ---------------------------------------------------------------------------------
 (0) _main                                                 0     0      0    5356
                        _declarePort
                         _lcd_gotoxy
                           _lcd_init
                           _lcd_puts
 ---------------------------------------------------------------------------------
 (1) _lcd_puts                                             2     2      0    2700
                                             29 BANK0      2     2      0
                           _lcd_putc
 ---------------------------------------------------------------------------------
 (2) _lcd_putc                                             3     3      0    2589
                                             26 BANK0      3     3      0
                           _lcd_busy
                         _lcd_gotoxy
                       _lcd_put_byte
 ---------------------------------------------------------------------------------
 (3) _lcd_gotoxy                                           4     3      1    1433
                                             22 BANK0      4     3      1
                           _lcd_busy
                       _lcd_put_byte
 ---------------------------------------------------------------------------------
 (1) _lcd_init                                             3     3      0    1223
                                             22 BANK0      2     2      0
                           _lcd_busy
                       _lcd_put_byte
                     _lcd_put_nibble
 ---------------------------------------------------------------------------------
 (3) _lcd_put_byte                                         3     2      1    1089
                                             19 BANK0      3     2      1
                     _lcd_put_nibble
 ---------------------------------------------------------------------------------
 (4) _lcd_put_nibble                                       3     3      0     111
                                             16 BANK0      3     3      0
 ---------------------------------------------------------------------------------
 (4) _lcd_busy                                             2     2      0      23
                                             16 BANK0      2     2      0
 ---------------------------------------------------------------------------------
 (1) _declarePort                                          0     0      0       0
 ---------------------------------------------------------------------------------
 Estimated maximum stack depth 4
 ---------------------------------------------------------------------------------
 (Depth) Function   	        Calls       Base Space   Used Autos Params    Refs
 ---------------------------------------------------------------------------------
 (6) _myIsr                                                4     4      0    4199
                                             12 BANK0      4     4      0
                             _printf
                       i1_lcd_gotoxy
                         i1_lcd_init
                         i1_lcd_puts
 ---------------------------------------------------------------------------------
 (7) i1_lcd_puts                                           2     2      0    1052
                                             13 COMMON     1     1      0
                                              0 BANK0      1     1      0
                         i1_lcd_putc
 ---------------------------------------------------------------------------------
 (7) i1_lcd_init                                           3     3      0     519
                                              6 COMMON     2     2      0
                         i1_lcd_busy
                     i1_lcd_put_byte
                   i1_lcd_put_nibble
 ---------------------------------------------------------------------------------
 (7) _printf                                              20    18      2    2073
                                              0 BANK0     12    10      2
                            ___lwdiv
                            ___lwmod
                              _putch
 ---------------------------------------------------------------------------------
 (8) _putch                                                1     1      0    1029
                                             13 COMMON     1     1      0
                         i1_lcd_putc
 ---------------------------------------------------------------------------------
 (8) i1_lcd_putc                                           3     3      0    1007
                                             10 COMMON     3     3      0
                         i1_lcd_busy
                       i1_lcd_gotoxy
                     i1_lcd_put_byte
 ---------------------------------------------------------------------------------
 (9) i1_lcd_gotoxy                                         4     3      1     555
                                              6 COMMON     4     3      1
                         i1_lcd_busy
                     i1_lcd_put_byte
 ---------------------------------------------------------------------------------
 (9) i1_lcd_put_byte                                       3     2      1     385
                                              3 COMMON     3     2      1
                   i1_lcd_put_nibble
 ---------------------------------------------------------------------------------
 (10) i1_lcd_put_nibble                                    3     3      0     111
                                              0 COMMON     3     3      0
 ---------------------------------------------------------------------------------
 (10) i1_lcd_busy                                          2     2      0      23
                                              0 COMMON     2     2      0
 ---------------------------------------------------------------------------------
 (8) ___lwmod                                              6     2      4     311
                                              8 COMMON     6     2      4
                            ___lwdiv (ARG)
 ---------------------------------------------------------------------------------
 (8) ___lwdiv                                              8     4      4     314
                                              0 COMMON     8     4      4
 ---------------------------------------------------------------------------------
 Estimated maximum stack depth 10
 ---------------------------------------------------------------------------------

 Call Graph Graphs:

 _main (ROOT)
   _declarePort
   _lcd_gotoxy
     _lcd_busy
     _lcd_put_byte
       _lcd_put_nibble
   _lcd_init
     _lcd_busy
     _lcd_put_byte
     _lcd_put_nibble
   _lcd_puts
     _lcd_putc
       _lcd_busy
       _lcd_gotoxy
       _lcd_put_byte

 _myIsr (ROOT)
   _printf
     ___lwdiv
     ___lwmod
       ___lwdiv (ARG)
     _putch
       i1_lcd_putc
         i1_lcd_busy
         i1_lcd_gotoxy
           i1_lcd_busy
           i1_lcd_put_byte
             i1_lcd_put_nibble
         i1_lcd_put_byte
   i1_lcd_gotoxy
   i1_lcd_init
     i1_lcd_busy
     i1_lcd_put_byte
     i1_lcd_put_nibble
   i1_lcd_puts
     i1_lcd_putc

 Address spaces:
Name               Size   Autos  Total    Cost      Usage
BITCOMMON            E      0       0       0        0.0%
EEDATA             100      0       0       0        0.0%
NULL                 0      0       0       0        0.0%
CODE                 0      0       0       0        0.0%
COMMON               E      E       E       1      100.0%
BITSFR0              0      0       0       1        0.0%
SFR0                 0      0       0       1        0.0%
BITSFR1              0      0       0       2        0.0%
SFR1                 0      0       0       2        0.0%
STACK                0      0       0       2        0.0%
ABS                  0      0      2F       3        0.0%
BITBANK0            50      0       0       4        0.0%
BITSFR3              0      0       0       4        0.0%
SFR3                 0      0       0       4        0.0%
BANK0               50     1F      21       5       41.2%
BITSFR2              0      0       0       5        0.0%
SFR2                 0      0       0       5        0.0%
BITBANK1            50      0       0       6        0.0%
BANK1               50      0       0       7        0.0%
BITBANK3            60      0       0       8        0.0%
BANK3               60      0       0       9        0.0%
BITBANK2            60      0       0      10        0.0%
BANK2               60      0       0      11        0.0%
DATA                 0      0      2F      12        0.0%


Microchip Technology PIC Macro Assembler V2.32 build 20210201212658 
Symbol Table                                                                                   Mon Jun 07 09:48:06 2021

                        pc 0002                         l33 0507                         l41 034F  
                       l44 0430                         l46 045C                         l54 055F  
                       l72 02A7                         l78 05CB                         l96 01A6  
   __end_of_lcd_put_nibble 0350                         fsr 0004              ?_lcd_put_byte 0033  
                      l184 0608                        l185 0608                        l179 061A  
                      _GIE 005F                        _RD1 0041                        _RD2 0042  
                      _RD3 0043                        _RD4 0044                        _RD5 0045  
                      _RD6 0046                        _RD7 0047                        u900 0324  
                      u901 0320                        u920 032E                        u921 032A  
                      u914 0327                        u940 0338                        u941 0334  
                      u934 0331                        u880 031A                        u881 0316  
                      u954 033B                        u980 042E                        u981 042D  
                      u894 031D                        u995 0448                        fsr0 0004  
                      indf 0000                 i1_lcd_busy 0508                 i1_lcd_init 01A7  
               i1_lcd_putc 02A8                 i1_lcd_puts 05CC                       l1400 030D  
                     l1410 0342                       l1402 0313                       l1412 034C  
                     l1404 031D                       l1406 0327                       l1510 054A  
                     l1502 053B                       l1408 0331                       l1512 0555  
                     l1504 0540                       l1506 0545                       l1610 05AC  
                     l1460 04F1                       l1452 04D0                       l1620 0101  
                     l1508 0546                       l1540 0256                       l1612 05AD  
                     l1470 0506                       l1462 04F2                       l1454 04DA  
                     l1630 0116                       l1622 010B                       l1550 0289  
                     l1542 0261                       l1614 05B9                       l1464 04F9  
                     l1456 04E1                       l1480 0431                       l1640 0150  
                     l1632 0126                       l1624 010E                       l1544 026A  
                     l1552 0294                       l1536 024D                       l1616 05BF  
                     l1466 04FC                       l1458 04EB                       l1482 0438  
                     l1474 0421                       l1650 0186                       l1642 015C  
                     l1634 0130                       l1626 010F                       l1618 00F8  
                     l1546 0274                       l1538 024E                       l1660 060C  
                     l1468 0503                       l1484 0442                       l1476 0427  
                     l1652 0190                       l1644 0166                       l1636 0140  
                     l1628 0110                       l1548 027F                       l1812 05EF  
                     l1670 0618                       l1662 0610                       l1398 0307  
                     l1486 0445                       l1478 042E                       l1654 019C  
                     l1646 0172                       l1638 0146                       l1814 0602  
                     l1672 0619                       l1664 0615                       l1488 0453  
                     l1648 017C                       l1904 029C                       l1666 0616  
                     l1668 0617                       STR_1 05A6                       u1020 0540  
                     u1021 053F                       u1030 055F                       u1031 055E  
                     u1070 0260                       u1230 05CB                       u1071 025F  
                     u1231 05CA                       u1240 0150                       u1080 027E  
                     u1241 014F                       u1081 027D                       u1250 0166  
                     u1090 0293                       u1251 0165                       u1091 0292  
                     u1260 017C                       u1261 017B                       u1270 0190  
                     u1271 018F                       u1280 01A6                       u1281 01A5  
                     u1507 011C                       u1517 012C                       u1607 0500  
                     u1527 013C                       u1537 0435                       u1547 043F  
                     u1557 033F                       u1567 0349                       u1577 04DE  
                     u1497 0107                       u1587 04E8                       u1597 04F6  
                     _INTE 005C                       _INTF 0059                       i1l33 0537  
                     i1l41 03D9                       i1l44 04A7                       i1l46 04CF  
                     i1l54 0585                       i1l72 0303                       i1l78 05EE  
                     i1l96 0249                       _WPUB 0095  __size_ofi1_lcd_put_nibble 0044  
                     _main 05EF               lcd_busy@busy 0031                       btemp 007E  
                     start 0012            ?_lcd_put_nibble 0070             ??_lcd_put_byte 0034  
                    ?_main 0070      __size_ofi1_lcd_gotoxy 0026                      _ANSEL 0188  
          __end_of___lwdiv 041E                      i1l123 0622                      i1l308 00F7  
          __end_of___lwmod 0497                      i1l196 0389                      i1l584 041D  
                    i1l594 0496                      u80_20 03A8                      u80_21 03A4  
                    u81_24 03AB                      _TRISB 0086                      u82_20 03B2  
                    u82_21 03AE                      u83_24 03B5                      u84_20 03BC  
                    u84_21 03B8                      u85_24 03BF                      u86_20 03C6  
                    u86_21 03C2                      u87_24 03C9                      u96_20 04A3  
                    u96_21 04A2                      u97_25 04BD                      _nRBPU 040F  
     __size_of_declarePort 000F            __end_of_dpowers 0596                      _count 003F  
                    _myIsr 0350                      _putch 061B                      pclath 000A  
                    status 0003                      wtemp0 007E             i1lcd_busy@busy 0071  
          __initialization 0015               i1_lcd_gotoxy 0560               __end_of_main 060C  
            lcd_gotoxy@col 0038              lcd_gotoxy@row 0036                i1lcd_putc@c 007C  
              i1lcd_puts@s 0020         lcd_put_nibble@temp 0032                     ??_main 003F  
              ?i1_lcd_busy 0070                ?i1_lcd_init 0070                ?i1_lcd_putc 0070  
              ?i1_lcd_puts 0070                     ?_myIsr 0070                     ?_putch 0070  
                   _ANSELH 0189                     u100_20 0566                     u100_21 0565  
                   u101_20 0585                     u101_21 0584                     u110_20 03E2  
                   u110_21 03E1                     i1l1420 051F                     i1l1500 057B  
                   u111_25 03E6                     i1l1430 0533                     i1l1422 0525  
                   i1l1414 0508                     u112_20 03F4                     i1l1600 047F  
                   u120_20 047F                     i1l1432 0536                     i1l1424 0526  
                   i1l1416 0512                     i1l1440 04A3                     i1l1520 02BD  
                   u104_20 02BC                     u112_21 03F3                     u120_21 047E  
                   u104_21 02BB                     i1l1602 0485                     i1l1426 052B  
                   i1l1418 0517                     i1l1450 04C8                     i1l1442 04AA  
                   i1l1522 02C6                     i1l1530 02F0                     i1l1514 02A9  
                   i1l1604 048C                     i1l1428 052E                     i1l1444 04AF  
                   i1l1436 0498                     i1l1524 02D0                     i1l1516 02AA  
                   u120_25 047B                     i1l1606 0492                     i1l1390 03B5  
                   i1l1382 0397                     i1l1446 04B7                     i1l1438 049E  
                   i1l1526 02DB                     i1l1518 02B2                     i1l1710 0097  
                   i1l1702 006B                     i1l1392 03BF                     i1l1384 039D  
                   i1l1448 04BA                     i1l1528 02E5                     u105_20 02DA  
                   i1l1560 061C                     i1l1712 009D                     u105_21 02D9  
                   i1l1570 03EC                     i1l1562 03DA                     i1l1394 03CE  
                   i1l1386 03A1                     i1l1490 0561                     i1l1714 00A4  
                   i1l1706 0087                     i1l1730 05E2                     i1l1580 040C  
                   i1l1572 03F0                     i1l1564 03DC                     i1l1396 03D6  
                   i1l1388 03AB                     i1l1492 0566                     i1l1716 00D8  
                   i1l1708 0091                     i1l1740 01BD                     i1l1732 01A7  
                   i1l1724 05CF                     i1l1820 0358                     u113_25 03F5  
                   u121_25 0486                     i1l1582 0413                     i1l1574 03F4  
                   i1l1566 03E2                     i1l1590 0463                     i1l1494 056B  
                   i1l1718 00E3                     i1l1750 01EB                     i1l1742 01BE  
                   i1l1734 01B0                     i1l1726 05D0                     i1l1830 0375  
                   i1l1822 0361                     i1l1576 0405                     u114_20 0405  
                   i1l1568 03E5                     i1l1584 0419                     u122_20 0492  
                   i1l1592 0466                     i1l1496 056C                     u106_20 02EF  
                   u130_20 0060                     i1l1680 0032                     i1l1760 0219  
                   i1l1752 01F1                     i1l1744 01C4                     i1l1736 01B9  
                   i1l1728 05DC                     i1l1832 037D                     i1l1824 0363  
                   i1l1816 0350                     u114_21 0404                     u122_21 0491  
                   u106_21 02EE                     u130_21 005F                     i1l1578 040B  
                   i1l1594 046D                     i1l1498 0570                     i1l1690 005C  
                   i1l1906 0045                     i1l1674 0020                     i1l1762 0223  
                   i1l1754 01FB                     i1l1746 01D3                     i1l1738 01BC  
                   i1l1826 0368                     i1l1818 0351                     i1l1596 0471  
                   i1l1588 045D                     i1l1908 02F8                     i1l1692 0060  
                   i1l1684 0033                     i1l1676 0025                     i1l1764 022B  
                   i1l1756 0205                     i1l1748 01DC                     i1l1828 036F  
                   u114_25 0401                     i1l1598 0475                     i1l1694 0064  
                   i1l1686 0050                     i1l1678 002B                     i1l1766 0235  
                   i1l1758 020F                     u131_20 0086                     i1l1696 0069  
                   i1l1688 0058                     i1l1768 023F                     u131_21 0085  
                   u115_25 040D                     u131_25 0082                     u116_20 0419  
                   u132_20 0091                     u140_20 0235                     u116_21 0418  
                   u132_21 0090                     u140_21 0234                     u117_20 0463  
                   u133_20 0097                     u141_20 0249                     u117_21 0462  
                   u133_21 0096                     u141_21 0248                     u134_20 00E3  
                   u134_21 00E2                     _INTEDG 040E                     u118_25 0467  
                   u119_20 0475                     u135_20 00F7                     u119_21 0474  
                   u135_21 00F6                     u136_20 05EE                     u136_21 05ED  
                   u129_20 002B                     u137_20 01FB                     u129_21 002A  
                   u137_21 01FA                     u161_27 01B4                     u138_20 020F  
                   u138_21 020E                     u170_27 051C                     u162_27 01C8  
                   u139_20 0223                     u139_21 0222                     u171_27 0528  
                   u163_27 01D7                     u148_20 0358                     u148_21 0357  
                   u172_27 0530                     u164_27 01E6                     u165_27 04AC  
                   u166_27 04B4                     u167_27 03CB                     u168_27 03D3  
                   u169_27 0514                     _TRISD1 0441                     _TRISD2 0442  
                   _TRISD3 0443                     _TRISD4 0444                     _TRISD5 0445  
                   _TRISD6 0446                     _TRISD7 0447           __end_of_lcd_busy 0508  
         __end_of_lcd_init 01A7           __end_of_lcd_putc 02A8           __end_of_lcd_puts 05CC  
                ??___lwdiv 0074                  ??___lwmod 007C                     _printf 001D  
            lcd_put_byte@b 0033                     saved_w 007E                     putch@c 007D  
         i1_lcd_put_nibble 0396    __end_of__initialization 0019       __end_of_lcd_put_byte 045D  
           __pcstackCOMMON 0070        __size_ofi1_lcd_busy 0030        __size_ofi1_lcd_init 00A3  
      __size_ofi1_lcd_putc 005C        __size_ofi1_lcd_puts 0023              __end_of_myIsr 0396  
            __end_of_putch 0623            i1lcd_gotoxy@col 0078            i1lcd_gotoxy@row 0076  
        lcd_gotoxy@address 0039                    ??_myIsr 002C                    ??_putch 007D  
               __pbssBANK0 003F           ??_lcd_put_nibble 0030                 __pmaintext 05EF  
               __pintentry 0004                    ?_printf 0020    __size_ofi1_lcd_put_byte 0039  
               _lcd_gotoxy 0538            i1lcd_put_byte@b 0073                  ?_lcd_busy 0070  
                ?_lcd_init 0070                  ?_lcd_putc 0070                  ?_lcd_puts 0070  
               __stringtab 0586                    ___lwdiv 03DA                    ___lwmod 045D  
                  __ptext1 05A9                    __ptext2 024A                    __ptext3 0538  
                  __ptext4 00F8                    __ptext5 041E                    __ptext6 0304  
                  __ptext7 04D0                    __ptext8 060C                    __ptext9 0350  
          __size_of_printf 00DB              ??_declarePort 0030                    _dpowers 058C  
             ??i1_lcd_busy 0070               ??i1_lcd_init 0076               ??i1_lcd_putc 007A  
             ??i1_lcd_puts 007D      __size_of_lcd_put_byte 003F                 ??_lcd_busy 0030  
               ??_lcd_init 0036                 ??_lcd_putc 003A                 ??_lcd_puts 003D  
     end_of_initialization 0019             lcd_put_byte@rs 0035                    printf@c 002B  
                  printf@f 0028         __end_ofi1_lcd_busy 0538         __end_ofi1_lcd_init 024A  
       __end_ofi1_lcd_putc 0304         __end_ofi1_lcd_puts 05EF   __end_ofi1_lcd_put_nibble 03DA  
        i1lcd_put_nibble@b 0071               _lcd_put_byte 041E                ?_lcd_gotoxy 0036  
      __end_of_declarePort 061B          __end_of_your_name 05A6             __end_of_printf 00F8  
           i1_lcd_put_byte 0497        start_initialization 0015        __size_of_lcd_gotoxy 0028  
                 ??_printf 0022     __end_ofi1_lcd_put_byte 04D0                _declarePort 060C  
                ___latbits 0002              __pcstackBANK0 0020          __size_of_lcd_busy 0038  
        __size_of_lcd_init 00AF          __size_of_lcd_putc 005E          __size_of_lcd_puts 0023  
         ___lwdiv@dividend 0072              ?i1_lcd_gotoxy 0076        i1lcd_gotoxy@address 0079  
                 ?___lwdiv 0070                   ?___lwmod 0078                  __pstrings 0586  
          ?i1_lcd_put_byte 0073           ___lwdiv@quotient 0075             __size_of_myIsr 0046  
           __size_of_putch 0008          interrupt_function 0004             ??i1_lcd_gotoxy 0077  
         i1lcd_put_byte@rs 0075                __stringbase 058B          ?i1_lcd_put_nibble 0070  
  __size_of_lcd_put_nibble 004C                 printf@flag 0026                 printf@prec 0027  
       ??i1_lcd_put_nibble 0070                  lcd_putc@c 003C                  lcd_puts@s 003E  
             ??_lcd_gotoxy 0037                  _your_name 0596         __end_of_lcd_gotoxy 0560  
         __size_of___lwdiv 0044           __size_of___lwmod 003A         __end_of__stringtab 058C  
          ___lwdiv@divisor 0070            ___lwdiv@counter 0077                   __ptext10 05CC  
                 __ptext11 01A7                   __ptext20 03DA                   __ptext12 001D  
                 __ptext13 061B                   __ptext14 02A8                   __ptext15 0560  
                 __ptext16 0497                   __ptext17 0396                   __ptext18 0508  
                 __ptext19 045D                   _lcd_busy 04D0                   _lcd_init 00F8  
                 _lcd_putc 024A                   _lcd_puts 05A9              __size_of_main 001D  
                printf@val 0029       i1lcd_put_nibble@temp 0072               ?_declarePort 0070  
          lcd_put_nibble@b 0031       __end_ofi1_lcd_gotoxy 0586                   intlevel1 0000  
         ___lwmod@dividend 007A                  stringcode 0586                   printf@ap 0025  
         ??i1_lcd_put_byte 0074             _lcd_put_nibble 0304            ___lwmod@divisor 0078  
          ___lwmod@counter 007D                   stringdir 0586                   stringtab 0586  
